(dp0
S'nnz'
p1
ccollections
OrderedDict
p2
((lp3
(lp4
S'KKI2009'
p5
ag2
((lp6
(lp7
S'KKI2009_113_1_desikan.graphml'
p8
aI742
aa(lp9
S'KKI2009_113_2_desikan.graphml'
p10
aI712
aa(lp11
S'KKI2009_127_1_desikan.graphml'
p12
aI683
aa(lp13
S'KKI2009_127_2_desikan.graphml'
p14
aI675
aa(lp15
S'KKI2009_142_1_desikan.graphml'
p16
aI737
aa(lp17
S'KKI2009_142_2_desikan.graphml'
p18
aI775
aa(lp19
S'KKI2009_239_1_desikan.graphml'
p20
aI694
aa(lp21
S'KKI2009_239_2_desikan.graphml'
p22
aI689
aa(lp23
S'KKI2009_346_1_desikan.graphml'
p24
aI724
aa(lp25
S'KKI2009_346_2_desikan.graphml'
p26
aI737
aa(lp27
S'KKI2009_422_1_desikan.graphml'
p28
aI678
aa(lp29
S'KKI2009_422_2_desikan.graphml'
p30
aI701
aa(lp31
S'KKI2009_492_1_desikan.graphml'
p32
aI710
aa(lp33
S'KKI2009_492_2_desikan.graphml'
p34
aI676
aa(lp35
S'KKI2009_502_1_desikan.graphml'
p36
aI687
aa(lp37
S'KKI2009_502_2_desikan.graphml'
p38
aI696
aa(lp39
S'KKI2009_505_1_desikan.graphml'
p40
aI677
aa(lp41
S'KKI2009_505_2_desikan.graphml'
p42
aI690
aa(lp43
S'KKI2009_656_1_desikan.graphml'
p44
aI788
aa(lp45
S'KKI2009_656_2_desikan.graphml'
p46
aI739
aa(lp47
S'KKI2009_679_1_desikan.graphml'
p48
aI619
aa(lp49
S'KKI2009_679_2_desikan.graphml'
p50
aI635
aa(lp51
S'KKI2009_742_1_desikan.graphml'
p52
aI625
aa(lp53
S'KKI2009_742_2_desikan.graphml'
p54
aI615
aa(lp55
S'KKI2009_800_1_desikan.graphml'
p56
aI648
aa(lp57
S'KKI2009_800_2_desikan.graphml'
p58
aI648
aa(lp59
S'KKI2009_814_1_desikan.graphml'
p60
aI694
aa(lp61
S'KKI2009_814_2_desikan.graphml'
p62
aI726
aa(lp63
S'KKI2009_815_1_desikan.graphml'
p64
aI756
aa(lp65
S'KKI2009_815_2_desikan.graphml'
p66
aI739
aa(lp67
S'KKI2009_849_1_desikan.graphml'
p68
aI685
aa(lp69
S'KKI2009_849_2_desikan.graphml'
p70
aI700
aa(lp71
S'KKI2009_906_1_desikan.graphml'
p72
aI741
aa(lp73
S'KKI2009_906_2_desikan.graphml'
p74
aI742
aa(lp75
S'KKI2009_913_1_desikan.graphml'
p76
aI682
aa(lp77
S'KKI2009_913_2_desikan.graphml'
p78
aI685
aa(lp79
S'KKI2009_916_1_desikan.graphml'
p80
aI712
aa(lp81
S'KKI2009_916_2_desikan.graphml'
p82
aI678
aa(lp83
S'KKI2009_934_1_desikan.graphml'
p84
aI703
aa(lp85
S'KKI2009_934_2_desikan.graphml'
p86
aI725
aa(lp87
S'KKI2009_959_1_desikan.graphml'
p88
aI696
aa(lp89
S'KKI2009_959_2_desikan.graphml'
p90
aI667
aatp91
Rp92
aa(lp93
S'MRN114'
p94
ag2
((lp95
(lp96
S'MRN114_M87102217_1_desikan_sg.graphml'
p97
aI1504
aa(lp98
S'MRN114_M87102806_1_desikan_sg.graphml'
p99
aI1355
aa(lp100
S'MRN114_M87103074_1_desikan_sg.graphml'
p101
aI1387
aa(lp102
S'MRN114_M87105476_1_desikan_sg.graphml'
p103
aI1315
aa(lp104
S'MRN114_M87107085_1_desikan_sg.graphml'
p105
aI1681
aa(lp106
S'MRN114_M87108094_1_desikan_sg.graphml'
p107
aI1606
aa(lp108
S'MRN114_M87111487_1_desikan_sg.graphml'
p109
aI1677
aa(lp110
S'MRN114_M87111924_1_desikan_sg.graphml'
p111
aI1482
aa(lp112
S'MRN114_M87114047_1_desikan_sg.graphml'
p113
aI1563
aa(lp114
S'MRN114_M87114064_1_desikan_sg.graphml'
p115
aI1338
aa(lp116
S'MRN114_M87115498_1_desikan_sg.graphml'
p117
aI1349
aa(lp118
S'MRN114_M87115517_1_desikan_sg.graphml'
p119
aI1276
aa(lp120
S'MRN114_M87117119_1_desikan_sg.graphml'
p121
aI1618
aa(lp122
S'MRN114_M87117167_1_desikan_sg.graphml'
p123
aI1663
aa(lp124
S'MRN114_M87120962_1_desikan_sg.graphml'
p125
aI1697
aa(lp126
S'MRN114_M87121943_1_desikan_sg.graphml'
p127
aI1395
aa(lp128
S'MRN114_M87121956_1_desikan_sg.graphml'
p129
aI1698
aa(lp130
S'MRN114_M87122092_1_desikan_sg.graphml'
p131
aI1179
aa(lp132
S'MRN114_M87123042_1_desikan_sg.graphml'
p133
aI1490
aa(lp134
S'MRN114_M87123449_1_desikan_sg.graphml'
p135
aI1265
aa(lp136
S'MRN114_M87123913_1_desikan_sg.graphml'
p137
aI1510
aa(lp138
S'MRN114_M87124633_1_desikan_sg.graphml'
p139
aI1370
aa(lp140
S'MRN114_M87124781_1_desikan_sg.graphml'
p141
aI1470
aa(lp142
S'MRN114_M87124827_1_desikan_sg.graphml'
p143
aI1412
aa(lp144
S'MRN114_M87125134_1_desikan_sg.graphml'
p145
aI1850
aa(lp146
S'MRN114_M87128444_1_desikan_sg.graphml'
p147
aI1644
aa(lp148
S'MRN114_M87129719_1_desikan_sg.graphml'
p149
aI1520
aa(lp150
S'MRN114_M87129789_1_desikan_sg.graphml'
p151
aI1532
aa(lp152
S'MRN114_M87131806_1_desikan_sg.graphml'
p153
aI1710
aa(lp154
S'MRN114_M87134068_1_desikan_sg.graphml'
p155
aI1802
aa(lp156
S'MRN114_M87135647_1_desikan_sg.graphml'
p157
aI1440
aa(lp158
S'MRN114_M87136332_1_desikan_sg.graphml'
p159
aI1636
aa(lp160
S'MRN114_M87136832_1_desikan_sg.graphml'
p161
aI1446
aa(lp162
S'MRN114_M87139021_1_desikan_sg.graphml'
p163
aI1427
aa(lp164
S'MRN114_M87139257_1_desikan_sg.graphml'
p165
aI1489
aa(lp166
S'MRN114_M87141220_1_desikan_sg.graphml'
p167
aI1447
aa(lp168
S'MRN114_M87141664_1_desikan_sg.graphml'
p169
aI1511
aa(lp170
S'MRN114_M87141793_1_desikan_sg.graphml'
p171
aI1522
aa(lp172
S'MRN114_M87141858_1_desikan_sg.graphml'
p173
aI1233
aa(lp174
S'MRN114_M87141906_1_desikan_sg.graphml'
p175
aI685
aa(lp176
S'MRN114_M87141949_1_desikan_sg.graphml'
p177
aI1384
aa(lp178
S'MRN114_M87142764_1_desikan_sg.graphml'
p179
aI1746
aa(lp180
S'MRN114_M87143273_1_desikan_sg.graphml'
p181
aI1407
aa(lp182
S'MRN114_M87144889_1_desikan_sg.graphml'
p183
aI1383
aa(lp184
S'MRN114_M87144896_1_desikan_sg.graphml'
p185
aI1172
aa(lp186
S'MRN114_M87145479_1_desikan_sg.graphml'
p187
aI1432
aa(lp188
S'MRN114_M87145575_1_desikan_sg.graphml'
p189
aI1911
aa(lp190
S'MRN114_M87146520_1_desikan_sg.graphml'
p191
aI1421
aa(lp192
S'MRN114_M87146993_1_desikan_sg.graphml'
p193
aI878
aa(lp194
S'MRN114_M87147006_1_desikan_sg.graphml'
p195
aI1560
aa(lp196
S'MRN114_M87148745_1_desikan_sg.graphml'
p197
aI1538
aa(lp198
S'MRN114_M87149014_1_desikan_sg.graphml'
p199
aI1299
aa(lp200
S'MRN114_M87149025_1_desikan_sg.graphml'
p201
aI628
aa(lp202
S'MRN114_M87150194_1_desikan_sg.graphml'
p203
aI1706
aa(lp204
S'MRN114_M87150415_1_desikan_sg.graphml'
p205
aI1394
aa(lp206
S'MRN114_M87150639_1_desikan_sg.graphml'
p207
aI1429
aa(lp208
S'MRN114_M87151117_1_desikan_sg.graphml'
p209
aI1396
aa(lp210
S'MRN114_M87151146_1_desikan_sg.graphml'
p211
aI1379
aa(lp212
S'MRN114_M87151453_1_desikan_sg.graphml'
p213
aI1424
aa(lp214
S'MRN114_M87152844_1_desikan_sg.graphml'
p215
aI1511
aa(lp216
S'MRN114_M87153569_1_desikan_sg.graphml'
p217
aI893
aa(lp218
S'MRN114_M87154559_1_desikan_sg.graphml'
p219
aI1330
aa(lp220
S'MRN114_M87155496_1_desikan_sg.graphml'
p221
aI1418
aa(lp222
S'MRN114_M87155949_1_desikan_sg.graphml'
p223
aI1516
aa(lp224
S'MRN114_M87156106_1_desikan_sg.graphml'
p225
aI1719
aa(lp226
S'MRN114_M87157827_1_desikan_sg.graphml'
p227
aI1272
aa(lp228
S'MRN114_M87158338_1_desikan_sg.graphml'
p229
aI1621
aa(lp230
S'MRN114_M87158534_1_desikan_sg.graphml'
p231
aI1549
aa(lp232
S'MRN114_M87159410_1_desikan_sg.graphml'
p233
aI1350
aa(lp234
S'MRN114_M87159580_1_desikan_sg.graphml'
p235
aI1541
aa(lp236
S'MRN114_M87160332_1_desikan_sg.graphml'
p237
aI1456
aa(lp238
S'MRN114_M87160375_1_desikan_sg.graphml'
p239
aI1345
aa(lp240
S'MRN114_M87161235_1_desikan_sg.graphml'
p241
aI1475
aa(lp242
S'MRN114_M87161902_1_desikan_sg.graphml'
p243
aI1507
aa(lp244
S'MRN114_M87162915_1_desikan_sg.graphml'
p245
aI1510
aa(lp246
S'MRN114_M87164412_1_desikan_sg.graphml'
p247
aI1728
aa(lp248
S'MRN114_M87164886_1_desikan_sg.graphml'
p249
aI1508
aa(lp250
S'MRN114_M87165017_1_desikan_sg.graphml'
p251
aI1172
aa(lp252
S'MRN114_M87165441_1_desikan_sg.graphml'
p253
aI1590
aa(lp254
S'MRN114_M87166115_1_desikan_sg.graphml'
p255
aI1497
aa(lp256
S'MRN114_M87168759_1_desikan_sg.graphml'
p257
aI1587
aa(lp258
S'MRN114_M87174803_1_desikan_sg.graphml'
p259
aI1401
aa(lp260
S'MRN114_M87176019_1_desikan_sg.graphml'
p261
aI1412
aa(lp262
S'MRN114_M87176708_1_desikan_sg.graphml'
p263
aI1652
aa(lp264
S'MRN114_M87178630_1_desikan_sg.graphml'
p265
aI1452
aa(lp266
S'MRN114_M87179511_1_desikan_sg.graphml'
p267
aI1458
aa(lp268
S'MRN114_M87179597_1_desikan_sg.graphml'
p269
aI1307
aa(lp270
S'MRN114_M87179713_1_desikan_sg.graphml'
p271
aI1342
aa(lp272
S'MRN114_M87181205_1_desikan_sg.graphml'
p273
aI1383
aa(lp274
S'MRN114_M87181216_1_desikan_sg.graphml'
p275
aI1222
aa(lp276
S'MRN114_M87182922_1_desikan_sg.graphml'
p277
aI671
aa(lp278
S'MRN114_M87183189_1_desikan_sg.graphml'
p279
aI1108
aa(lp280
S'MRN114_M87183485_1_desikan_sg.graphml'
p281
aI1383
aa(lp282
S'MRN114_M87184910_1_desikan_sg.graphml'
p283
aI1288
aa(lp284
S'MRN114_M87185000_1_desikan_sg.graphml'
p285
aI1527
aa(lp286
S'MRN114_M87186642_1_desikan_sg.graphml'
p287
aI618
aa(lp288
S'MRN114_M87187090_1_desikan_sg.graphml'
p289
aI1374
aa(lp290
S'MRN114_M87187750_1_desikan_sg.graphml'
p291
aI1301
aa(lp292
S'MRN114_M87187984_1_desikan_sg.graphml'
p293
aI1684
aa(lp294
S'MRN114_M87188000_1_desikan_sg.graphml'
p295
aI1542
aa(lp296
S'MRN114_M87188762_1_desikan_sg.graphml'
p297
aI1418
aa(lp298
S'MRN114_M87190609_1_desikan_sg.graphml'
p299
aI1602
aa(lp300
S'MRN114_M87190745_1_desikan_sg.graphml'
p301
aI1657
aa(lp302
S'MRN114_M87191087_1_desikan_sg.graphml'
p303
aI1339
aa(lp304
S'MRN114_M87191258_1_desikan_sg.graphml'
p305
aI1544
aa(lp306
S'MRN114_M87192333_1_desikan_sg.graphml'
p307
aI1178
aa(lp308
S'MRN114_M87192557_1_desikan_sg.graphml'
p309
aI1300
aa(lp310
S'MRN114_M87192637_1_desikan_sg.graphml'
p311
aI1291
aa(lp312
S'MRN114_M87192995_1_desikan_sg.graphml'
p313
aI1545
aa(lp314
S'MRN114_M87193409_1_desikan_sg.graphml'
p315
aI1614
aa(lp316
S'MRN114_M87196363_1_desikan_sg.graphml'
p317
aI1303
aa(lp318
S'MRN114_M87196591_1_desikan_sg.graphml'
p319
aI1553
aa(lp320
S'MRN114_M87199297_1_desikan_sg.graphml'
p321
aI1121
aa(lp322
S'MRN114_M87199728_1_desikan_sg.graphml'
p323
aI1782
aatp324
Rp325
aa(lp326
S'MRN1313'
p327
ag2
((lp328
(lp329
S'MRN1313_11G_1_DTI_desikan.graphml'
p330
aI990
aa(lp331
S'MRN1313_11L_1_DTI_desikan.graphml'
p332
aI1175
aa(lp333
S'MRN1313_11X_1_DTI_desikan.graphml'
p334
aI945
aa(lp335
S'MRN1313_14C_1_DTI_desikan.graphml'
p336
aI912
aa(lp337
S'MRN1313_179_1_DTI_desikan.graphml'
p338
aI756
aa(lp339
S'MRN1313_18E_1_DTI_desikan.graphml'
p340
aI939
aa(lp341
S'MRN1313_1AR_1_DTI_desikan.graphml'
p342
aI831
aa(lp343
S'MRN1313_1BW_1_DTI_desikan.graphml'
p344
aI1133
aa(lp345
S'MRN1313_1CE_1_DTI_desikan.graphml'
p346
aI996
aa(lp347
S'MRN1313_1CJ_1_DTI_desikan.graphml'
p348
aI1064
aa(lp349
S'MRN1313_1D6_1_DTI_desikan.graphml'
p350
aI1160
aa(lp351
S'MRN1313_1DH_1_DTI_desikan.graphml'
p352
aI1009
aa(lp353
S'MRN1313_1DX_1_DTI_desikan.graphml'
p354
aI918
aa(lp355
S'MRN1313_1FA_1_DTI_desikan.graphml'
p356
aI1066
aa(lp357
S'MRN1313_1GG_1_DTI_desikan.graphml'
p358
aI721
aa(lp359
S'MRN1313_1H7_1_DTI_desikan.graphml'
p360
aI886
aa(lp361
S'MRN1313_1LE_1_DTI_desikan.graphml'
p362
aI966
aa(lp363
S'MRN1313_1LH_1_DTI_desikan.graphml'
p364
aI938
aa(lp365
S'MRN1313_1LN_1_DTI_desikan.graphml'
p366
aI996
aa(lp367
S'MRN1313_1NB_1_DTI_desikan.graphml'
p368
aI750
aa(lp369
S'MRN1313_1NF_1_DTI_desikan.graphml'
p370
aI939
aa(lp371
S'MRN1313_1NT_1_DTI_desikan.graphml'
p372
aI818
aa(lp373
S'MRN1313_1PK_1_DTI_desikan.graphml'
p374
aI625
aa(lp375
S'MRN1313_1SY_1_DTI_desikan.graphml'
p376
aI936
aa(lp377
S'MRN1313_1T5_1_DTI_desikan.graphml'
p378
aI898
aa(lp379
S'MRN1313_1TN_1_DTI_desikan.graphml'
p380
aI1019
aa(lp381
S'MRN1313_1TR_1_DTI_desikan.graphml'
p382
aI1020
aa(lp383
S'MRN1313_1VX_1_DTI_desikan.graphml'
p384
aI1033
aa(lp385
S'MRN1313_1W4_1_DTI_desikan.graphml'
p386
aI979
aa(lp387
S'MRN1313_1WM_1_DTI_desikan.graphml'
p388
aI913
aa(lp389
S'MRN1313_1Y7_1_DTI_desikan.graphml'
p390
aI902
aa(lp391
S'MRN1313_1YM_1_DTI_desikan.graphml'
p392
aI947
aa(lp393
S'MRN1313_1Z4_1_DTI_desikan.graphml'
p394
aI925
aa(lp395
S'MRN1313_1ZD_1_DTI_desikan.graphml'
p396
aI1061
aa(lp397
S'MRN1313_23T_1_DTI_desikan.graphml'
p398
aI945
aa(lp399
S'MRN1313_242_1_DTI_desikan.graphml'
p400
aI964
aa(lp401
S'MRN1313_255_1_DTI_desikan.graphml'
p402
aI902
aa(lp403
S'MRN1313_25D_1_DTI_desikan.graphml'
p404
aI1119
aa(lp405
S'MRN1313_26F_1_DTI_desikan.graphml'
p406
aI1077
aa(lp407
S'MRN1313_278_1_DTI_desikan.graphml'
p408
aI741
aa(lp409
S'MRN1313_28B_1_DTI_desikan.graphml'
p410
aI919
aa(lp411
S'MRN1313_299_1_DTI_desikan.graphml'
p412
aI602
aa(lp413
S'MRN1313_29F_1_DTI_desikan.graphml'
p414
aI1009
aa(lp415
S'MRN1313_2A5_1_DTI_desikan.graphml'
p416
aI1091
aa(lp417
S'MRN1313_2AM_1_DTI_desikan.graphml'
p418
aI1005
aa(lp419
S'MRN1313_2AN_1_DTI_desikan.graphml'
p420
aI920
aa(lp421
S'MRN1313_2BJ_1_DTI_desikan.graphml'
p422
aI1030
aa(lp423
S'MRN1313_2CF_1_DTI_desikan.graphml'
p424
aI879
aa(lp425
S'MRN1313_2HA_1_DTI_desikan.graphml'
p426
aI907
aa(lp427
S'MRN1313_2J7_1_DTI_desikan.graphml'
p428
aI766
aa(lp429
S'MRN1313_2P7_1_DTI_desikan.graphml'
p430
aI1002
aa(lp431
S'MRN1313_2RG_1_DTI_desikan.graphml'
p432
aI932
aa(lp433
S'MRN1313_2TL_1_DTI_desikan.graphml'
p434
aI901
aa(lp435
S'MRN1313_2TQ_1_DTI_desikan.graphml'
p436
aI871
aa(lp437
S'MRN1313_2V4_1_DTI_desikan.graphml'
p438
aI1014
aa(lp439
S'MRN1313_2W8_1_DTI_desikan.graphml'
p440
aI1014
aa(lp441
S'MRN1313_2ZV_1_DTI_desikan.graphml'
p442
aI715
aa(lp443
S'MRN1313_31E_1_DTI_desikan.graphml'
p444
aI951
aa(lp445
S'MRN1313_31L_1_DTI_desikan.graphml'
p446
aI1094
aa(lp447
S'MRN1313_322_1_DTI_desikan.graphml'
p448
aI1109
aa(lp449
S'MRN1313_33N_1_DTI_desikan.graphml'
p450
aI930
aa(lp451
S'MRN1313_33Q_1_DTI_desikan.graphml'
p452
aI872
aa(lp453
S'MRN1313_35E_1_DTI_desikan.graphml'
p454
aI1227
aa(lp455
S'MRN1313_363_1_DTI_desikan.graphml'
p456
aI790
aa(lp457
S'MRN1313_36E_1_DTI_desikan.graphml'
p458
aI909
aa(lp459
S'MRN1313_375_1_DTI_desikan.graphml'
p460
aI965
aa(lp461
S'MRN1313_383_1_DTI_desikan.graphml'
p462
aI880
aa(lp463
S'MRN1313_38D_1_DTI_desikan.graphml'
p464
aI952
aa(lp465
S'MRN1313_38Q_1_DTI_desikan.graphml'
p466
aI716
aa(lp467
S'MRN1313_38R_1_DTI_desikan.graphml'
p468
aI896
aa(lp469
S'MRN1313_3A6_1_DTI_desikan.graphml'
p470
aI1155
aa(lp471
S'MRN1313_3AS_1_DTI_desikan.graphml'
p472
aI1136
aa(lp473
S'MRN1313_3E1_1_DTI_desikan.graphml'
p474
aI1123
aa(lp475
S'MRN1313_3G2_1_DTI_desikan.graphml'
p476
aI1045
aa(lp477
S'MRN1313_3G7_1_DTI_desikan.graphml'
p478
aI1026
aa(lp479
S'MRN1313_3GP_1_DTI_desikan.graphml'
p480
aI1017
aa(lp481
S'MRN1313_3GV_1_DTI_desikan.graphml'
p482
aI899
aa(lp483
S'MRN1313_3HK_1_DTI_desikan.graphml'
p484
aI1089
aa(lp485
S'MRN1313_3JL_1_DTI_desikan.graphml'
p486
aI1073
aa(lp487
S'MRN1313_3L6_1_DTI_desikan.graphml'
p488
aI1065
aa(lp489
S'MRN1313_3LB_1_DTI_desikan.graphml'
p490
aI939
aa(lp491
S'MRN1313_3LD_1_DTI_desikan.graphml'
p492
aI959
aa(lp493
S'MRN1313_3MF_1_DTI_desikan.graphml'
p494
aI903
aa(lp495
S'MRN1313_3MN_1_DTI_desikan.graphml'
p496
aI950
aa(lp497
S'MRN1313_3MT_1_DTI_desikan.graphml'
p498
aI1003
aa(lp499
S'MRN1313_3NJ_1_DTI_desikan.graphml'
p500
aI916
aa(lp501
S'MRN1313_3PM_1_DTI_desikan.graphml'
p502
aI1152
aa(lp503
S'MRN1313_3Q4_1_DTI_desikan.graphml'
p504
aI1024
aa(lp505
S'MRN1313_3Q8_1_DTI_desikan.graphml'
p506
aI904
aa(lp507
S'MRN1313_3QC_1_DTI_desikan.graphml'
p508
aI916
aa(lp509
S'MRN1313_3QG_1_DTI_desikan.graphml'
p510
aI1049
aa(lp511
S'MRN1313_3RL_1_DTI_desikan.graphml'
p512
aI862
aa(lp513
S'MRN1313_3RQ_1_DTI_desikan.graphml'
p514
aI662
aa(lp515
S'MRN1313_3SD_1_DTI_desikan.graphml'
p516
aI992
aa(lp517
S'MRN1313_3SS_1_DTI_desikan.graphml'
p518
aI889
aa(lp519
S'MRN1313_3SZ_1_DTI_desikan.graphml'
p520
aI930
aa(lp521
S'MRN1313_3T7_1_DTI_desikan.graphml'
p522
aI1065
aa(lp523
S'MRN1313_3T8_1_DTI_desikan.graphml'
p524
aI966
aa(lp525
S'MRN1313_3VL_1_DTI_desikan.graphml'
p526
aI1025
aa(lp527
S'MRN1313_3W2_1_DTI_desikan.graphml'
p528
aI820
aa(lp529
S'MRN1313_3WG_1_DTI_desikan.graphml'
p530
aI1034
aa(lp531
S'MRN1313_3Y1_1_DTI_desikan.graphml'
p532
aI710
aa(lp533
S'MRN1313_3YK_1_DTI_desikan.graphml'
p534
aI951
aa(lp535
S'MRN1313_3YS_1_DTI_desikan.graphml'
p536
aI1097
aa(lp537
S'MRN1313_3YY_1_DTI_desikan.graphml'
p538
aI927
aa(lp539
S'MRN1313_3YZ_1_DTI_desikan.graphml'
p540
aI1193
aa(lp541
S'MRN1313_3ZE_1_DTI_desikan.graphml'
p542
aI1296
aa(lp543
S'MRN1313_3ZX_1_DTI_desikan.graphml'
p544
aI870
aa(lp545
S'MRN1313_413_1_DTI_desikan.graphml'
p546
aI1115
aa(lp547
S'MRN1313_42G_1_DTI_desikan.graphml'
p548
aI887
aa(lp549
S'MRN1313_42H_1_DTI_desikan.graphml'
p550
aI1065
aa(lp551
S'MRN1313_42P_1_DTI_desikan.graphml'
p552
aI748
aa(lp553
S'MRN1313_43E_1_DTI_desikan.graphml'
p554
aI960
aa(lp555
S'MRN1313_44Q_1_DTI_desikan.graphml'
p556
aI1025
aa(lp557
S'MRN1313_45C_1_DTI_desikan.graphml'
p558
aI1159
aa(lp559
S'MRN1313_45M_1_DTI_desikan.graphml'
p560
aI950
aa(lp561
S'MRN1313_46W_1_DTI_desikan.graphml'
p562
aI903
aa(lp563
S'MRN1313_476_1_DTI_desikan.graphml'
p564
aI795
aa(lp565
S'MRN1313_47T_1_DTI_desikan.graphml'
p566
aI1040
aa(lp567
S'MRN1313_47X_1_DTI_desikan.graphml'
p568
aI933
aa(lp569
S'MRN1313_4AK_1_DTI_desikan.graphml'
p570
aI1037
aa(lp571
S'MRN1313_4AX_1_DTI_desikan.graphml'
p572
aI1070
aa(lp573
S'MRN1313_4B2_1_DTI_desikan.graphml'
p574
aI935
aa(lp575
S'MRN1313_4C5_1_DTI_desikan.graphml'
p576
aI1011
aa(lp577
S'MRN1313_4C8_1_DTI_desikan.graphml'
p578
aI965
aa(lp579
S'MRN1313_4DT_1_DTI_desikan.graphml'
p580
aI800
aa(lp581
S'MRN1313_4EY_1_DTI_desikan.graphml'
p582
aI809
aa(lp583
S'MRN1313_4FN_1_DTI_desikan.graphml'
p584
aI712
aa(lp585
S'MRN1313_4G9_1_DTI_desikan.graphml'
p586
aI917
aa(lp587
S'MRN1313_4GG_1_DTI_desikan.graphml'
p588
aI750
aa(lp589
S'MRN1313_4GP_1_DTI_desikan.graphml'
p590
aI1108
aa(lp591
S'MRN1313_4J9_1_DTI_desikan.graphml'
p592
aI719
aa(lp593
S'MRN1313_4JM_1_DTI_desikan.graphml'
p594
aI891
aa(lp595
S'MRN1313_4JS_1_DTI_desikan.graphml'
p596
aI1000
aa(lp597
S'MRN1313_4K8_1_DTI_desikan.graphml'
p598
aI1042
aa(lp599
S'MRN1313_4KX_1_DTI_desikan.graphml'
p600
aI985
aa(lp601
S'MRN1313_4LF_1_DTI_desikan.graphml'
p602
aI1125
aa(lp603
S'MRN1313_4MA_1_DTI_desikan.graphml'
p604
aI1069
aa(lp605
S'MRN1313_4MW_1_DTI_desikan.graphml'
p606
aI945
aa(lp607
S'MRN1313_4MX_1_DTI_desikan.graphml'
p608
aI823
aa(lp609
S'MRN1313_4NB_1_DTI_desikan.graphml'
p610
aI1021
aa(lp611
S'MRN1313_4SB_1_DTI_desikan.graphml'
p612
aI1129
aa(lp613
S'MRN1313_4SE_1_DTI_desikan.graphml'
p614
aI1031
aa(lp615
S'MRN1313_4T9_1_DTI_desikan.graphml'
p616
aI1009
aa(lp617
S'MRN1313_4V1_1_DTI_desikan.graphml'
p618
aI817
aa(lp619
S'MRN1313_4VS_1_DTI_desikan.graphml'
p620
aI823
aa(lp621
S'MRN1313_4W8_1_DTI_desikan.graphml'
p622
aI888
aa(lp623
S'MRN1313_4WM_1_DTI_desikan.graphml'
p624
aI758
aa(lp625
S'MRN1313_4X8_1_DTI_desikan.graphml'
p626
aI989
aa(lp627
S'MRN1313_4XP_1_DTI_desikan.graphml'
p628
aI892
aa(lp629
S'MRN1313_4YT_1_DTI_desikan.graphml'
p630
aI1162
aa(lp631
S'MRN1313_4Z8_1_DTI_desikan.graphml'
p632
aI1077
aa(lp633
S'MRN1313_4ZP_1_DTI_desikan.graphml'
p634
aI712
aa(lp635
S'MRN1313_51Q_1_DTI_desikan.graphml'
p636
aI833
aa(lp637
S'MRN1313_51S_1_DTI_desikan.graphml'
p638
aI1000
aa(lp639
S'MRN1313_52E_1_DTI_desikan.graphml'
p640
aI991
aa(lp641
S'MRN1313_532_1_DTI_desikan.graphml'
p642
aI597
aa(lp643
S'MRN1313_53C_1_DTI_desikan.graphml'
p644
aI701
aa(lp645
S'MRN1313_53Q_1_DTI_desikan.graphml'
p646
aI899
aa(lp647
S'MRN1313_55Y_1_DTI_desikan.graphml'
p648
aI1077
aa(lp649
S'MRN1313_57V_1_DTI_desikan.graphml'
p650
aI845
aa(lp651
S'MRN1313_58V_1_DTI_desikan.graphml'
p652
aI1123
aa(lp653
S'MRN1313_59F_1_DTI_desikan.graphml'
p654
aI892
aa(lp655
S'MRN1313_59G_1_DTI_desikan.graphml'
p656
aI853
aa(lp657
S'MRN1313_5AD_1_DTI_desikan.graphml'
p658
aI592
aa(lp659
S'MRN1313_5AX_1_DTI_desikan.graphml'
p660
aI1100
aa(lp661
S'MRN1313_5C1_1_DTI_desikan.graphml'
p662
aI876
aa(lp663
S'MRN1313_5CC_1_DTI_desikan.graphml'
p664
aI726
aa(lp665
S'MRN1313_5CR_1_DTI_desikan.graphml'
p666
aI1058
aa(lp667
S'MRN1313_5DH_1_DTI_desikan.graphml'
p668
aI1012
aa(lp669
S'MRN1313_5DT_1_DTI_desikan.graphml'
p670
aI877
aa(lp671
S'MRN1313_5FJ_1_DTI_desikan.graphml'
p672
aI942
aa(lp673
S'MRN1313_5FQ_1_DTI_desikan.graphml'
p674
aI784
aa(lp675
S'MRN1313_5HM_1_DTI_desikan.graphml'
p676
aI735
aa(lp677
S'MRN1313_5J4_1_DTI_desikan.graphml'
p678
aI818
aa(lp679
S'MRN1313_5J8_1_DTI_desikan.graphml'
p680
aI931
aa(lp681
S'MRN1313_5JP_1_DTI_desikan.graphml'
p682
aI924
aa(lp683
S'MRN1313_5K2_1_DTI_desikan.graphml'
p684
aI861
aa(lp685
S'MRN1313_5KX_1_DTI_desikan.graphml'
p686
aI981
aa(lp687
S'MRN1313_5L6_1_DTI_desikan.graphml'
p688
aI678
aa(lp689
S'MRN1313_5LL_1_DTI_desikan.graphml'
p690
aI667
aa(lp691
S'MRN1313_5LP_1_DTI_desikan.graphml'
p692
aI801
aa(lp693
S'MRN1313_5MH_1_DTI_desikan.graphml'
p694
aI835
aa(lp695
S'MRN1313_5NN_1_DTI_desikan.graphml'
p696
aI932
aa(lp697
S'MRN1313_5P2_1_DTI_desikan.graphml'
p698
aI977
aa(lp699
S'MRN1313_5QJ_1_DTI_desikan.graphml'
p700
aI890
aa(lp701
S'MRN1313_5S3_1_DTI_desikan.graphml'
p702
aI1110
aa(lp703
S'MRN1313_5T5_1_DTI_desikan.graphml'
p704
aI1086
aa(lp705
S'MRN1313_5TB_1_DTI_desikan.graphml'
p706
aI1244
aa(lp707
S'MRN1313_5WM_1_DTI_desikan.graphml'
p708
aI918
aa(lp709
S'MRN1313_5Y4_1_DTI_desikan.graphml'
p710
aI1150
aa(lp711
S'MRN1313_5YK_1_DTI_desikan.graphml'
p712
aI905
aa(lp713
S'MRN1313_5YS_1_DTI_desikan.graphml'
p714
aI936
aa(lp715
S'MRN1313_5YY_1_DTI_desikan.graphml'
p716
aI955
aa(lp717
S'MRN1313_5ZN_1_DTI_desikan.graphml'
p718
aI888
aa(lp719
S'MRN1313_61G_1_DTI_desikan.graphml'
p720
aI864
aa(lp721
S'MRN1313_61K_1_DTI_desikan.graphml'
p722
aI645
aa(lp723
S'MRN1313_61P_1_DTI_desikan.graphml'
p724
aI978
aa(lp725
S'MRN1313_61Q_1_DTI_desikan.graphml'
p726
aI816
aa(lp727
S'MRN1313_62C_1_DTI_desikan.graphml'
p728
aI965
aa(lp729
S'MRN1313_62Z_1_DTI_desikan.graphml'
p730
aI899
aa(lp731
S'MRN1313_64A_1_DTI_desikan.graphml'
p732
aI1000
aa(lp733
S'MRN1313_653_1_DTI_desikan.graphml'
p734
aI842
aa(lp735
S'MRN1313_65Z_1_DTI_desikan.graphml'
p736
aI935
aa(lp737
S'MRN1313_66P_1_DTI_desikan.graphml'
p738
aI1080
aa(lp739
S'MRN1313_671_1_DTI_desikan.graphml'
p740
aI951
aa(lp741
S'MRN1313_67P_1_DTI_desikan.graphml'
p742
aI852
aa(lp743
S'MRN1313_693_1_DTI_desikan.graphml'
p744
aI937
aa(lp745
S'MRN1313_696_1_DTI_desikan.graphml'
p746
aI1172
aa(lp747
S'MRN1313_6CK_1_DTI_desikan.graphml'
p748
aI879
aa(lp749
S'MRN1313_6E4_1_DTI_desikan.graphml'
p750
aI1129
aa(lp751
S'MRN1313_6FD_1_DTI_desikan.graphml'
p752
aI935
aa(lp753
S'MRN1313_6FH_1_DTI_desikan.graphml'
p754
aI916
aa(lp755
S'MRN1313_6GC_1_DTI_desikan.graphml'
p756
aI910
aa(lp757
S'MRN1313_6GV_1_DTI_desikan.graphml'
p758
aI1294
aa(lp759
S'MRN1313_6HP_1_DTI_desikan.graphml'
p760
aI895
aa(lp761
S'MRN1313_6K9_1_DTI_desikan.graphml'
p762
aI672
aa(lp763
S'MRN1313_6KM_1_DTI_desikan.graphml'
p764
aI913
aa(lp765
S'MRN1313_6KT_1_DTI_desikan.graphml'
p766
aI1078
aa(lp767
S'MRN1313_6LA_1_DTI_desikan.graphml'
p768
aI920
aa(lp769
S'MRN1313_6LE_1_DTI_desikan.graphml'
p770
aI1064
aa(lp771
S'MRN1313_6LG_1_DTI_desikan.graphml'
p772
aI963
aa(lp773
S'MRN1313_6MQ_1_DTI_desikan.graphml'
p774
aI1208
aa(lp775
S'MRN1313_6N9_1_DTI_desikan.graphml'
p776
aI884
aa(lp777
S'MRN1313_6Q9_1_DTI_desikan.graphml'
p778
aI1153
aa(lp779
S'MRN1313_6QP_1_DTI_desikan.graphml'
p780
aI1039
aa(lp781
S'MRN1313_6QW_1_DTI_desikan.graphml'
p782
aI729
aa(lp783
S'MRN1313_6S6_1_DTI_desikan.graphml'
p784
aI879
aa(lp785
S'MRN1313_6TP_1_DTI_desikan.graphml'
p786
aI1097
aa(lp787
S'MRN1313_6XE_1_DTI_desikan.graphml'
p788
aI965
aa(lp789
S'MRN1313_6Y2_1_DTI_desikan.graphml'
p790
aI991
aa(lp791
S'MRN1313_6YH_1_DTI_desikan.graphml'
p792
aI1122
aa(lp793
S'MRN1313_6YP_1_DTI_desikan.graphml'
p794
aI905
aa(lp795
S'MRN1313_6YS_1_DTI_desikan.graphml'
p796
aI1001
aa(lp797
S'MRN1313_6ZM_1_DTI_desikan.graphml'
p798
aI850
aa(lp799
S'MRN1313_71D_1_DTI_desikan.graphml'
p800
aI851
aa(lp801
S'MRN1313_722_1_DTI_desikan.graphml'
p802
aI1092
aa(lp803
S'MRN1313_723_1_DTI_desikan.graphml'
p804
aI898
aa(lp805
S'MRN1313_72W_1_DTI_desikan.graphml'
p806
aI1014
aa(lp807
S'MRN1313_736_1_DTI_desikan.graphml'
p808
aI981
aa(lp809
S'MRN1313_73H_1_DTI_desikan.graphml'
p810
aI1130
aa(lp811
S'MRN1313_73R_1_DTI_desikan.graphml'
p812
aI884
aa(lp813
S'MRN1313_74J_1_DTI_desikan.graphml'
p814
aI1060
aa(lp815
S'MRN1313_75K_1_DTI_desikan.graphml'
p816
aI953
aa(lp817
S'MRN1313_76T_1_DTI_desikan.graphml'
p818
aI995
aa(lp819
S'MRN1313_77A_1_DTI_desikan.graphml'
p820
aI672
aa(lp821
S'MRN1313_77F_1_DTI_desikan.graphml'
p822
aI1055
aa(lp823
S'MRN1313_78G_1_DTI_desikan.graphml'
p824
aI890
aa(lp825
S'MRN1313_79K_1_DTI_desikan.graphml'
p826
aI973
aa(lp827
S'MRN1313_79W_1_DTI_desikan.graphml'
p828
aI982
aa(lp829
S'MRN1313_7A4_1_DTI_desikan.graphml'
p830
aI1088
aa(lp831
S'MRN1313_7AV_1_DTI_desikan.graphml'
p832
aI923
aa(lp833
S'MRN1313_7BY_1_DTI_desikan.graphml'
p834
aI1131
aa(lp835
S'MRN1313_7CJ_1_DTI_desikan.graphml'
p836
aI872
aa(lp837
S'MRN1313_7CQ_1_DTI_desikan.graphml'
p838
aI952
aa(lp839
S'MRN1313_7D5_1_DTI_desikan.graphml'
p840
aI910
aa(lp841
S'MRN1313_7DB_1_DTI_desikan.graphml'
p842
aI816
aa(lp843
S'MRN1313_7DF_1_DTI_desikan.graphml'
p844
aI964
aa(lp845
S'MRN1313_7EB_1_DTI_desikan.graphml'
p846
aI1045
aa(lp847
S'MRN1313_7G6_1_DTI_desikan.graphml'
p848
aI884
aa(lp849
S'MRN1313_7GE_1_DTI_desikan.graphml'
p850
aI957
aa(lp851
S'MRN1313_7GK_1_DTI_desikan.graphml'
p852
aI933
aa(lp853
S'MRN1313_7JK_1_DTI_desikan.graphml'
p854
aI943
aa(lp855
S'MRN1313_7KW_1_DTI_desikan.graphml'
p856
aI973
aa(lp857
S'MRN1313_7MG_1_DTI_desikan.graphml'
p858
aI1057
aa(lp859
S'MRN1313_7MT_1_DTI_desikan.graphml'
p860
aI1149
aa(lp861
S'MRN1313_7N3_1_DTI_desikan.graphml'
p862
aI1027
aa(lp863
S'MRN1313_7NL_1_DTI_desikan.graphml'
p864
aI605
aa(lp865
S'MRN1313_7NS_1_DTI_desikan.graphml'
p866
aI1001
aa(lp867
S'MRN1313_7P8_1_DTI_desikan.graphml'
p868
aI908
aa(lp869
S'MRN1313_7PY_1_DTI_desikan.graphml'
p870
aI1029
aa(lp871
S'MRN1313_7QZ_1_DTI_desikan.graphml'
p872
aI863
aa(lp873
S'MRN1313_7RR_1_DTI_desikan.graphml'
p874
aI1184
aa(lp875
S'MRN1313_7TD_1_DTI_desikan.graphml'
p876
aI1033
aa(lp877
S'MRN1313_7V5_1_DTI_desikan.graphml'
p878
aI872
aa(lp879
S'MRN1313_7V6_1_DTI_desikan.graphml'
p880
aI914
aa(lp881
S'MRN1313_7W2_1_DTI_desikan.graphml'
p882
aI944
aa(lp883
S'MRN1313_7WR_1_DTI_desikan.graphml'
p884
aI970
aa(lp885
S'MRN1313_7X7_1_DTI_desikan.graphml'
p886
aI1000
aa(lp887
S'MRN1313_7XX_1_DTI_desikan.graphml'
p888
aI962
aa(lp889
S'MRN1313_7YJ_1_DTI_desikan.graphml'
p890
aI820
aa(lp891
S'MRN1313_7YS_1_DTI_desikan.graphml'
p892
aI1026
aa(lp893
S'MRN1313_7Z2_1_DTI_desikan.graphml'
p894
aI1008
aa(lp895
S'MRN1313_811_1_DTI_desikan.graphml'
p896
aI943
aa(lp897
S'MRN1313_81X_1_DTI_desikan.graphml'
p898
aI841
aa(lp899
S'MRN1313_83H_1_DTI_desikan.graphml'
p900
aI951
aa(lp901
S'MRN1313_86Q_1_DTI_desikan.graphml'
p902
aI935
aa(lp903
S'MRN1313_87T_1_DTI_desikan.graphml'
p904
aI1051
aa(lp905
S'MRN1313_887_1_DTI_desikan.graphml'
p906
aI940
aa(lp907
S'MRN1313_8C5_1_DTI_desikan.graphml'
p908
aI1211
aa(lp909
S'MRN1313_8CR_1_DTI_desikan.graphml'
p910
aI895
aa(lp911
S'MRN1313_8CZ_1_DTI_desikan.graphml'
p912
aI1188
aa(lp913
S'MRN1313_8D5_1_DTI_desikan.graphml'
p914
aI1024
aa(lp915
S'MRN1313_8E1_1_DTI_desikan.graphml'
p916
aI880
aa(lp917
S'MRN1313_8ER_1_DTI_desikan.graphml'
p918
aI920
aa(lp919
S'MRN1313_8GH_1_DTI_desikan.graphml'
p920
aI764
aa(lp921
S'MRN1313_8GP_1_DTI_desikan.graphml'
p922
aI862
aa(lp923
S'MRN1313_8GW_1_DTI_desikan.graphml'
p924
aI1076
aa(lp925
S'MRN1313_8GZ_1_DTI_desikan.graphml'
p926
aI952
aa(lp927
S'MRN1313_8HA_1_DTI_desikan.graphml'
p928
aI1038
aa(lp929
S'MRN1313_8HL_1_DTI_desikan.graphml'
p930
aI1012
aa(lp931
S'MRN1313_8J2_1_DTI_desikan.graphml'
p932
aI978
aa(lp933
S'MRN1313_8JZ_1_DTI_desikan.graphml'
p934
aI980
aa(lp935
S'MRN1313_8KT_1_DTI_desikan.graphml'
p936
aI1190
aa(lp937
S'MRN1313_8LD_1_DTI_desikan.graphml'
p938
aI866
aa(lp939
S'MRN1313_8LS_1_DTI_desikan.graphml'
p940
aI980
aa(lp941
S'MRN1313_8PR_1_DTI_desikan.graphml'
p942
aI915
aa(lp943
S'MRN1313_8PW_1_DTI_desikan.graphml'
p944
aI913
aa(lp945
S'MRN1313_8QD_1_DTI_desikan.graphml'
p946
aI1003
aa(lp947
S'MRN1313_8QW_1_DTI_desikan.graphml'
p948
aI1083
aa(lp949
S'MRN1313_8RY_1_DTI_desikan.graphml'
p950
aI1021
aa(lp951
S'MRN1313_8RZ_1_DTI_desikan.graphml'
p952
aI915
aa(lp953
S'MRN1313_8T4_1_DTI_desikan.graphml'
p954
aI1025
aa(lp955
S'MRN1313_8VA_1_DTI_desikan.graphml'
p956
aI1035
aa(lp957
S'MRN1313_8VL_1_DTI_desikan.graphml'
p958
aI805
aa(lp959
S'MRN1313_8X4_1_DTI_desikan.graphml'
p960
aI952
aa(lp961
S'MRN1313_8Z3_1_DTI_desikan.graphml'
p962
aI1104
aa(lp963
S'MRN1313_8ZD_1_DTI_desikan.graphml'
p964
aI1067
aa(lp965
S'MRN1313_8ZF_1_DTI_desikan.graphml'
p966
aI937
aa(lp967
S'MRN1313_8ZW_1_DTI_desikan.graphml'
p968
aI913
aa(lp969
S'MRN1313_914_1_DTI_desikan.graphml'
p970
aI859
aa(lp971
S'MRN1313_925_1_DTI_desikan.graphml'
p972
aI879
aa(lp973
S'MRN1313_92L_1_DTI_desikan.graphml'
p974
aI820
aa(lp975
S'MRN1313_932_1_DTI_desikan.graphml'
p976
aI981
aa(lp977
S'MRN1313_98K_1_DTI_desikan.graphml'
p978
aI910
aa(lp979
S'MRN1313_98Z_1_DTI_desikan.graphml'
p980
aI877
aa(lp981
S'MRN1313_99E_1_DTI_desikan.graphml'
p982
aI939
aa(lp983
S'MRN1313_99S_1_DTI_desikan.graphml'
p984
aI950
aa(lp985
S'MRN1313_99X_1_DTI_desikan.graphml'
p986
aI913
aa(lp987
S'MRN1313_9AP_1_DTI_desikan.graphml'
p988
aI923
aa(lp989
S'MRN1313_9B8_1_DTI_desikan.graphml'
p990
aI925
aa(lp991
S'MRN1313_9BC_1_DTI_desikan.graphml'
p992
aI1023
aa(lp993
S'MRN1313_9BQ_1_DTI_desikan.graphml'
p994
aI650
aa(lp995
S'MRN1313_9C4_1_DTI_desikan.graphml'
p996
aI750
aa(lp997
S'MRN1313_9CG_1_DTI_desikan.graphml'
p998
aI1024
aa(lp999
S'MRN1313_9DG_1_DTI_desikan.graphml'
p1000
aI1023
aa(lp1001
S'MRN1313_9DX_1_DTI_desikan.graphml'
p1002
aI1393
aa(lp1003
S'MRN1313_9EZ_1_DTI_desikan.graphml'
p1004
aI806
aa(lp1005
S'MRN1313_9F5_1_DTI_desikan.graphml'
p1006
aI1164
aa(lp1007
S'MRN1313_9F8_1_DTI_desikan.graphml'
p1008
aI970
aa(lp1009
S'MRN1313_9G6_1_DTI_desikan.graphml'
p1010
aI905
aa(lp1011
S'MRN1313_9GN_1_DTI_desikan.graphml'
p1012
aI912
aa(lp1013
S'MRN1313_9GW_1_DTI_desikan.graphml'
p1014
aI1139
aa(lp1015
S'MRN1313_9H5_1_DTI_desikan.graphml'
p1016
aI1060
aa(lp1017
S'MRN1313_9HN_1_DTI_desikan.graphml'
p1018
aI1005
aa(lp1019
S'MRN1313_9K5_1_DTI_desikan.graphml'
p1020
aI1001
aa(lp1021
S'MRN1313_9K7_1_DTI_desikan.graphml'
p1022
aI872
aa(lp1023
S'MRN1313_9MV_1_DTI_desikan.graphml'
p1024
aI859
aa(lp1025
S'MRN1313_9Q9_1_DTI_desikan.graphml'
p1026
aI939
aa(lp1027
S'MRN1313_9QE_1_DTI_desikan.graphml'
p1028
aI1032
aa(lp1029
S'MRN1313_9QM_1_DTI_desikan.graphml'
p1030
aI893
aa(lp1031
S'MRN1313_9QY_1_DTI_desikan.graphml'
p1032
aI894
aa(lp1033
S'MRN1313_9RF_1_DTI_desikan.graphml'
p1034
aI1061
aa(lp1035
S'MRN1313_9RS_1_DTI_desikan.graphml'
p1036
aI875
aa(lp1037
S'MRN1313_9RT_1_DTI_desikan.graphml'
p1038
aI1086
aa(lp1039
S'MRN1313_9S2_1_DTI_desikan.graphml'
p1040
aI1025
aa(lp1041
S'MRN1313_9S5_1_DTI_desikan.graphml'
p1042
aI896
aa(lp1043
S'MRN1313_9V4_1_DTI_desikan.graphml'
p1044
aI831
aa(lp1045
S'MRN1313_9VJ_1_DTI_desikan.graphml'
p1046
aI854
aa(lp1047
S'MRN1313_9VR_1_DTI_desikan.graphml'
p1048
aI943
aa(lp1049
S'MRN1313_9VZ_1_DTI_desikan.graphml'
p1050
aI929
aa(lp1051
S'MRN1313_9W9_1_DTI_desikan.graphml'
p1052
aI1054
aa(lp1053
S'MRN1313_9X3_1_DTI_desikan.graphml'
p1054
aI843
aa(lp1055
S'MRN1313_9Y1_1_DTI_desikan.graphml'
p1056
aI941
aa(lp1057
S'MRN1313_9Y2_1_DTI_desikan.graphml'
p1058
aI959
aa(lp1059
S'MRN1313_9YN_1_DTI_desikan.graphml'
p1060
aI1007
aa(lp1061
S'MRN1313_9ZB_1_DTI_desikan.graphml'
p1062
aI1005
aa(lp1063
S'MRN1313_9ZR_1_DTI_desikan.graphml'
p1064
aI984
aa(lp1065
S'MRN1313_A11_1_DTI_desikan.graphml'
p1066
aI981
aa(lp1067
S'MRN1313_A1B_1_DTI_desikan.graphml'
p1068
aI933
aa(lp1069
S'MRN1313_A1K_1_DTI_desikan.graphml'
p1070
aI949
aa(lp1071
S'MRN1313_A23_1_DTI_desikan.graphml'
p1072
aI851
aa(lp1073
S'MRN1313_A34_1_DTI_desikan.graphml'
p1074
aI971
aa(lp1075
S'MRN1313_A3D_1_DTI_desikan.graphml'
p1076
aI1063
aa(lp1077
S'MRN1313_A3K_1_DTI_desikan.graphml'
p1078
aI913
aa(lp1079
S'MRN1313_A4B_1_DTI_desikan.graphml'
p1080
aI1025
aa(lp1081
S'MRN1313_A5Z_1_DTI_desikan.graphml'
p1082
aI688
aa(lp1083
S'MRN1313_A6V_1_DTI_desikan.graphml'
p1084
aI920
aa(lp1085
S'MRN1313_A7D_1_DTI_desikan.graphml'
p1086
aI883
aa(lp1087
S'MRN1313_A91_1_DTI_desikan.graphml'
p1088
aI1101
aa(lp1089
S'MRN1313_A98_1_DTI_desikan.graphml'
p1090
aI960
aa(lp1091
S'MRN1313_A9Z_1_DTI_desikan.graphml'
p1092
aI1083
aa(lp1093
S'MRN1313_ACB_1_DTI_desikan.graphml'
p1094
aI881
aa(lp1095
S'MRN1313_ACD_1_DTI_desikan.graphml'
p1096
aI969
aa(lp1097
S'MRN1313_AE5_1_DTI_desikan.graphml'
p1098
aI942
aa(lp1099
S'MRN1313_AFJ_1_DTI_desikan.graphml'
p1100
aI753
aa(lp1101
S'MRN1313_AFX_1_DTI_desikan.graphml'
p1102
aI802
aa(lp1103
S'MRN1313_AGK_1_DTI_desikan.graphml'
p1104
aI976
aa(lp1105
S'MRN1313_AGN_1_DTI_desikan.graphml'
p1106
aI834
aa(lp1107
S'MRN1313_AJY_1_DTI_desikan.graphml'
p1108
aI1013
aa(lp1109
S'MRN1313_ALJ_1_DTI_desikan.graphml'
p1110
aI1053
aa(lp1111
S'MRN1313_ALN_1_DTI_desikan.graphml'
p1112
aI900
aa(lp1113
S'MRN1313_ALV_1_DTI_desikan.graphml'
p1114
aI855
aa(lp1115
S'MRN1313_AMP_1_DTI_desikan.graphml'
p1116
aI853
aa(lp1117
S'MRN1313_ANW_1_DTI_desikan.graphml'
p1118
aI780
aa(lp1119
S'MRN1313_ANY_1_DTI_desikan.graphml'
p1120
aI1022
aa(lp1121
S'MRN1313_APG_1_DTI_desikan.graphml'
p1122
aI876
aa(lp1123
S'MRN1313_APK_1_DTI_desikan.graphml'
p1124
aI888
aa(lp1125
S'MRN1313_AR7_1_DTI_desikan.graphml'
p1126
aI870
aa(lp1127
S'MRN1313_AT3_1_DTI_desikan.graphml'
p1128
aI1060
aa(lp1129
S'MRN1313_ATY_1_DTI_desikan.graphml'
p1130
aI943
aa(lp1131
S'MRN1313_AVH_1_DTI_desikan.graphml'
p1132
aI919
aa(lp1133
S'MRN1313_AWN_1_DTI_desikan.graphml'
p1134
aI710
aa(lp1135
S'MRN1313_AWR_1_DTI_desikan.graphml'
p1136
aI939
aa(lp1137
S'MRN1313_AWV_1_DTI_desikan.graphml'
p1138
aI1073
aa(lp1139
S'MRN1313_AXT_1_DTI_desikan.graphml'
p1140
aI977
aa(lp1141
S'MRN1313_B16_1_DTI_desikan.graphml'
p1142
aI935
aa(lp1143
S'MRN1313_B1M_1_DTI_desikan.graphml'
p1144
aI1194
aa(lp1145
S'MRN1313_B1R_1_DTI_desikan.graphml'
p1146
aI931
aa(lp1147
S'MRN1313_B3V_1_DTI_desikan.graphml'
p1148
aI1189
aa(lp1149
S'MRN1313_B3X_1_DTI_desikan.graphml'
p1150
aI1109
aa(lp1151
S'MRN1313_B4V_1_DTI_desikan.graphml'
p1152
aI801
aa(lp1153
S'MRN1313_B4X_1_DTI_desikan.graphml'
p1154
aI897
aa(lp1155
S'MRN1313_B5D_1_DTI_desikan.graphml'
p1156
aI913
aa(lp1157
S'MRN1313_B8A_1_DTI_desikan.graphml'
p1158
aI1111
aa(lp1159
S'MRN1313_B8E_1_DTI_desikan.graphml'
p1160
aI874
aa(lp1161
S'MRN1313_B8J_1_DTI_desikan.graphml'
p1162
aI870
aa(lp1163
S'MRN1313_B8K_1_DTI_desikan.graphml'
p1164
aI1040
aa(lp1165
S'MRN1313_B98_1_DTI_desikan.graphml'
p1166
aI985
aa(lp1167
S'MRN1313_B9T_1_DTI_desikan.graphml'
p1168
aI718
aa(lp1169
S'MRN1313_BA1_1_DTI_desikan.graphml'
p1170
aI1144
aa(lp1171
S'MRN1313_BAA_1_DTI_desikan.graphml'
p1172
aI849
aa(lp1173
S'MRN1313_BAH_1_DTI_desikan.graphml'
p1174
aI1134
aa(lp1175
S'MRN1313_BCN_1_DTI_desikan.graphml'
p1176
aI999
aa(lp1177
S'MRN1313_BDM_1_DTI_desikan.graphml'
p1178
aI971
aa(lp1179
S'MRN1313_BDZ_1_DTI_desikan.graphml'
p1180
aI1036
aa(lp1181
S'MRN1313_BE6_1_DTI_desikan.graphml'
p1182
aI986
aa(lp1183
S'MRN1313_BGC_1_DTI_desikan.graphml'
p1184
aI885
aa(lp1185
S'MRN1313_BHJ_1_DTI_desikan.graphml'
p1186
aI844
aa(lp1187
S'MRN1313_BKG_1_DTI_desikan.graphml'
p1188
aI991
aa(lp1189
S'MRN1313_BM4_1_DTI_desikan.graphml'
p1190
aI949
aa(lp1191
S'MRN1313_BMW_1_DTI_desikan.graphml'
p1192
aI938
aa(lp1193
S'MRN1313_BNA_1_DTI_desikan.graphml'
p1194
aI908
aa(lp1195
S'MRN1313_BNE_1_DTI_desikan.graphml'
p1196
aI944
aa(lp1197
S'MRN1313_BNP_1_DTI_desikan.graphml'
p1198
aI911
aa(lp1199
S'MRN1313_BNX_1_DTI_desikan.graphml'
p1200
aI698
aa(lp1201
S'MRN1313_BP7_1_DTI_desikan.graphml'
p1202
aI631
aa(lp1203
S'MRN1313_BQJ_1_DTI_desikan.graphml'
p1204
aI937
aa(lp1205
S'MRN1313_BQL_1_DTI_desikan.graphml'
p1206
aI841
aa(lp1207
S'MRN1313_BR9_1_DTI_desikan.graphml'
p1208
aI860
aa(lp1209
S'MRN1313_BRK_1_DTI_desikan.graphml'
p1210
aI985
aa(lp1211
S'MRN1313_BTQ_1_DTI_desikan.graphml'
p1212
aI911
aa(lp1213
S'MRN1313_BVQ_1_DTI_desikan.graphml'
p1214
aI889
aa(lp1215
S'MRN1313_BY6_1_DTI_desikan.graphml'
p1216
aI915
aa(lp1217
S'MRN1313_BZD_1_DTI_desikan.graphml'
p1218
aI897
aa(lp1219
S'MRN1313_BZL_1_DTI_desikan.graphml'
p1220
aI1062
aa(lp1221
S'MRN1313_BZN_1_DTI_desikan.graphml'
p1222
aI997
aa(lp1223
S'MRN1313_BZZ_1_DTI_desikan.graphml'
p1224
aI698
aa(lp1225
S'MRN1313_C17_1_DTI_desikan.graphml'
p1226
aI845
aa(lp1227
S'MRN1313_C25_1_DTI_desikan.graphml'
p1228
aI981
aa(lp1229
S'MRN1313_C2P_1_DTI_desikan.graphml'
p1230
aI1051
aa(lp1231
S'MRN1313_C2T_1_DTI_desikan.graphml'
p1232
aI779
aa(lp1233
S'MRN1313_C5Q_1_DTI_desikan.graphml'
p1234
aI1043
aa(lp1235
S'MRN1313_C61_1_DTI_desikan.graphml'
p1236
aI631
aa(lp1237
S'MRN1313_C68_1_DTI_desikan.graphml'
p1238
aI1007
aa(lp1239
S'MRN1313_C6Z_1_DTI_desikan.graphml'
p1240
aI899
aa(lp1241
S'MRN1313_C76_1_DTI_desikan.graphml'
p1242
aI924
aa(lp1243
S'MRN1313_C8Q_1_DTI_desikan.graphml'
p1244
aI1045
aa(lp1245
S'MRN1313_C8T_1_DTI_desikan.graphml'
p1246
aI1195
aa(lp1247
S'MRN1313_CAC_1_DTI_desikan.graphml'
p1248
aI850
aa(lp1249
S'MRN1313_CAP_1_DTI_desikan.graphml'
p1250
aI1140
aa(lp1251
S'MRN1313_CB3_1_DTI_desikan.graphml'
p1252
aI908
aa(lp1253
S'MRN1313_CBC_1_DTI_desikan.graphml'
p1254
aI966
aa(lp1255
S'MRN1313_CBD_1_DTI_desikan.graphml'
p1256
aI964
aa(lp1257
S'MRN1313_CER_1_DTI_desikan.graphml'
p1258
aI1019
aa(lp1259
S'MRN1313_CFF_1_DTI_desikan.graphml'
p1260
aI997
aa(lp1261
S'MRN1313_CGW_1_DTI_desikan.graphml'
p1262
aI907
aa(lp1263
S'MRN1313_CHR_1_DTI_desikan.graphml'
p1264
aI1074
aa(lp1265
S'MRN1313_CK5_1_DTI_desikan.graphml'
p1266
aI1041
aa(lp1267
S'MRN1313_CK6_1_DTI_desikan.graphml'
p1268
aI1119
aa(lp1269
S'MRN1313_CLR_1_DTI_desikan.graphml'
p1270
aI999
aa(lp1271
S'MRN1313_CM8_1_DTI_desikan.graphml'
p1272
aI1015
aa(lp1273
S'MRN1313_CMA_1_DTI_desikan.graphml'
p1274
aI992
aa(lp1275
S'MRN1313_CRW_1_DTI_desikan.graphml'
p1276
aI770
aa(lp1277
S'MRN1313_CSS_1_DTI_desikan.graphml'
p1278
aI879
aa(lp1279
S'MRN1313_CT9_1_DTI_desikan.graphml'
p1280
aI658
aa(lp1281
S'MRN1313_CTD_1_DTI_desikan.graphml'
p1282
aI976
aa(lp1283
S'MRN1313_CV2_1_DTI_desikan.graphml'
p1284
aI669
aa(lp1285
S'MRN1313_CVT_1_DTI_desikan.graphml'
p1286
aI823
aa(lp1287
S'MRN1313_CVY_1_DTI_desikan.graphml'
p1288
aI743
aa(lp1289
S'MRN1313_CWK_1_DTI_desikan.graphml'
p1290
aI918
aa(lp1291
S'MRN1313_CXX_1_DTI_desikan.graphml'
p1292
aI954
aa(lp1293
S'MRN1313_CYN_1_DTI_desikan.graphml'
p1294
aI879
aa(lp1295
S'MRN1313_D1A_1_DTI_desikan.graphml'
p1296
aI991
aa(lp1297
S'MRN1313_D1M_1_DTI_desikan.graphml'
p1298
aI985
aa(lp1299
S'MRN1313_D29_1_DTI_desikan.graphml'
p1300
aI936
aa(lp1301
S'MRN1313_D4J_1_DTI_desikan.graphml'
p1302
aI964
aa(lp1303
S'MRN1313_D58_1_DTI_desikan.graphml'
p1304
aI761
aa(lp1305
S'MRN1313_D69_1_DTI_desikan.graphml'
p1306
aI856
aa(lp1307
S'MRN1313_D6M_1_DTI_desikan.graphml'
p1308
aI918
aa(lp1309
S'MRN1313_D6R_1_DTI_desikan.graphml'
p1310
aI1019
aa(lp1311
S'MRN1313_D6S_1_DTI_desikan.graphml'
p1312
aI910
aa(lp1313
S'MRN1313_D87_1_DTI_desikan.graphml'
p1314
aI1191
aa(lp1315
S'MRN1313_D88_1_DTI_desikan.graphml'
p1316
aI824
aa(lp1317
S'MRN1313_D99_1_DTI_desikan.graphml'
p1318
aI980
aa(lp1319
S'MRN1313_DAN_1_DTI_desikan.graphml'
p1320
aI926
aa(lp1321
S'MRN1313_DCM_1_DTI_desikan.graphml'
p1322
aI778
aa(lp1323
S'MRN1313_DCQ_1_DTI_desikan.graphml'
p1324
aI1021
aa(lp1325
S'MRN1313_DD9_1_DTI_desikan.graphml'
p1326
aI1291
aa(lp1327
S'MRN1313_DEB_1_DTI_desikan.graphml'
p1328
aI678
aa(lp1329
S'MRN1313_DFS_1_DTI_desikan.graphml'
p1330
aI988
aa(lp1331
S'MRN1313_DGZ_1_DTI_desikan.graphml'
p1332
aI1010
aa(lp1333
S'MRN1313_DJT_1_DTI_desikan.graphml'
p1334
aI757
aa(lp1335
S'MRN1313_DK7_1_DTI_desikan.graphml'
p1336
aI877
aa(lp1337
S'MRN1313_DLF_1_DTI_desikan.graphml'
p1338
aI943
aa(lp1339
S'MRN1313_DMF_1_DTI_desikan.graphml'
p1340
aI959
aa(lp1341
S'MRN1313_DN1_1_DTI_desikan.graphml'
p1342
aI1056
aa(lp1343
S'MRN1313_DQP_1_DTI_desikan.graphml'
p1344
aI949
aa(lp1345
S'MRN1313_DQT_1_DTI_desikan.graphml'
p1346
aI868
aa(lp1347
S'MRN1313_DRH_1_DTI_desikan.graphml'
p1348
aI733
aa(lp1349
S'MRN1313_DRZ_1_DTI_desikan.graphml'
p1350
aI1101
aa(lp1351
S'MRN1313_DSN_1_DTI_desikan.graphml'
p1352
aI855
aa(lp1353
S'MRN1313_DTX_1_DTI_desikan.graphml'
p1354
aI1061
aa(lp1355
S'MRN1313_DVA_1_DTI_desikan.graphml'
p1356
aI852
aa(lp1357
S'MRN1313_DWX_1_DTI_desikan.graphml'
p1358
aI931
aa(lp1359
S'MRN1313_DXW_1_DTI_desikan.graphml'
p1360
aI1106
aa(lp1361
S'MRN1313_DY1_1_DTI_desikan.graphml'
p1362
aI992
aa(lp1363
S'MRN1313_DY2_1_DTI_desikan.graphml'
p1364
aI976
aa(lp1365
S'MRN1313_DY6_1_DTI_desikan.graphml'
p1366
aI1123
aa(lp1367
S'MRN1313_DYL_1_DTI_desikan.graphml'
p1368
aI885
aa(lp1369
S'MRN1313_E1J_1_DTI_desikan.graphml'
p1370
aI1006
aa(lp1371
S'MRN1313_E28_1_DTI_desikan.graphml'
p1372
aI899
aa(lp1373
S'MRN1313_E47_1_DTI_desikan.graphml'
p1374
aI587
aa(lp1375
S'MRN1313_E49_1_DTI_desikan.graphml'
p1376
aI1224
aa(lp1377
S'MRN1313_E5X_1_DTI_desikan.graphml'
p1378
aI1067
aa(lp1379
S'MRN1313_E66_1_DTI_desikan.graphml'
p1380
aI1011
aa(lp1381
S'MRN1313_E6D_1_DTI_desikan.graphml'
p1382
aI960
aa(lp1383
S'MRN1313_E79_1_DTI_desikan.graphml'
p1384
aI645
aa(lp1385
S'MRN1313_E7C_1_DTI_desikan.graphml'
p1386
aI1009
aa(lp1387
S'MRN1313_E87_1_DTI_desikan.graphml'
p1388
aI1088
aa(lp1389
S'MRN1313_E9L_1_DTI_desikan.graphml'
p1390
aI1001
aa(lp1391
S'MRN1313_ECQ_1_DTI_desikan.graphml'
p1392
aI1027
aa(lp1393
S'MRN1313_ECW_1_DTI_desikan.graphml'
p1394
aI905
aa(lp1395
S'MRN1313_EEE_1_DTI_desikan.graphml'
p1396
aI606
aa(lp1397
S'MRN1313_EF7_1_DTI_desikan.graphml'
p1398
aI901
aa(lp1399
S'MRN1313_EF8_1_DTI_desikan.graphml'
p1400
aI961
aa(lp1401
S'MRN1313_EFV_1_DTI_desikan.graphml'
p1402
aI660
aa(lp1403
S'MRN1313_EG9_1_DTI_desikan.graphml'
p1404
aI1109
aa(lp1405
S'MRN1313_EGL_1_DTI_desikan.graphml'
p1406
aI960
aa(lp1407
S'MRN1313_EH7_1_DTI_desikan.graphml'
p1408
aI776
aa(lp1409
S'MRN1313_EHE_1_DTI_desikan.graphml'
p1410
aI940
aa(lp1411
S'MRN1313_EJR_1_DTI_desikan.graphml'
p1412
aI1021
aa(lp1413
S'MRN1313_EKL_1_DTI_desikan.graphml'
p1414
aI1116
aa(lp1415
S'MRN1313_ELH_1_DTI_desikan.graphml'
p1416
aI1031
aa(lp1417
S'MRN1313_ELT_1_DTI_desikan.graphml'
p1418
aI735
aa(lp1419
S'MRN1313_EP9_1_DTI_desikan.graphml'
p1420
aI1024
aa(lp1421
S'MRN1313_EPA_1_DTI_desikan.graphml'
p1422
aI919
aa(lp1423
S'MRN1313_EQG_1_DTI_desikan.graphml'
p1424
aI881
aa(lp1425
S'MRN1313_EQK_1_DTI_desikan.graphml'
p1426
aI928
aa(lp1427
S'MRN1313_EQS_1_DTI_desikan.graphml'
p1428
aI919
aa(lp1429
S'MRN1313_ER3_1_DTI_desikan.graphml'
p1430
aI1003
aa(lp1431
S'MRN1313_ERD_1_DTI_desikan.graphml'
p1432
aI966
aa(lp1433
S'MRN1313_ES5_1_DTI_desikan.graphml'
p1434
aI982
aa(lp1435
S'MRN1313_ET6_1_DTI_desikan.graphml'
p1436
aI1050
aa(lp1437
S'MRN1313_ETH_1_DTI_desikan.graphml'
p1438
aI921
aa(lp1439
S'MRN1313_ETK_1_DTI_desikan.graphml'
p1440
aI783
aa(lp1441
S'MRN1313_ETS_1_DTI_desikan.graphml'
p1442
aI1054
aa(lp1443
S'MRN1313_EV7_1_DTI_desikan.graphml'
p1444
aI967
aa(lp1445
S'MRN1313_EWB_1_DTI_desikan.graphml'
p1446
aI979
aa(lp1447
S'MRN1313_EX5_1_DTI_desikan.graphml'
p1448
aI850
aa(lp1449
S'MRN1313_EZB_1_DTI_desikan.graphml'
p1450
aI1199
aa(lp1451
S'MRN1313_EZX_1_DTI_desikan.graphml'
p1452
aI787
aa(lp1453
S'MRN1313_F1R_1_DTI_desikan.graphml'
p1454
aI959
aa(lp1455
S'MRN1313_F2P_1_DTI_desikan.graphml'
p1456
aI965
aa(lp1457
S'MRN1313_F3L_1_DTI_desikan.graphml'
p1458
aI989
aa(lp1459
S'MRN1313_F42_1_DTI_desikan.graphml'
p1460
aI926
aa(lp1461
S'MRN1313_F4N_1_DTI_desikan.graphml'
p1462
aI915
aa(lp1463
S'MRN1313_F51_1_DTI_desikan.graphml'
p1464
aI1087
aa(lp1465
S'MRN1313_F5J_1_DTI_desikan.graphml'
p1466
aI782
aa(lp1467
S'MRN1313_F66_1_DTI_desikan.graphml'
p1468
aI897
aa(lp1469
S'MRN1313_F6G_1_DTI_desikan.graphml'
p1470
aI904
aa(lp1471
S'MRN1313_F6V_1_DTI_desikan.graphml'
p1472
aI308
aa(lp1473
S'MRN1313_F78_1_DTI_desikan.graphml'
p1474
aI947
aa(lp1475
S'MRN1313_FD2_1_DTI_desikan.graphml'
p1476
aI849
aa(lp1477
S'MRN1313_FDL_1_DTI_desikan.graphml'
p1478
aI758
aa(lp1479
S'MRN1313_FDM_1_DTI_desikan.graphml'
p1480
aI1087
aa(lp1481
S'MRN1313_FG3_1_DTI_desikan.graphml'
p1482
aI998
aa(lp1483
S'MRN1313_FGC_1_DTI_desikan.graphml'
p1484
aI999
aa(lp1485
S'MRN1313_FGV_1_DTI_desikan.graphml'
p1486
aI879
aa(lp1487
S'MRN1313_FH3_1_DTI_desikan.graphml'
p1488
aI894
aa(lp1489
S'MRN1313_FH5_1_DTI_desikan.graphml'
p1490
aI1287
aa(lp1491
S'MRN1313_FHH_1_DTI_desikan.graphml'
p1492
aI941
aa(lp1493
S'MRN1313_FHR_1_DTI_desikan.graphml'
p1494
aI861
aa(lp1495
S'MRN1313_FJE_1_DTI_desikan.graphml'
p1496
aI920
aa(lp1497
S'MRN1313_FK3_1_DTI_desikan.graphml'
p1498
aI1071
aa(lp1499
S'MRN1313_FL6_1_DTI_desikan.graphml'
p1500
aI916
aa(lp1501
S'MRN1313_FMH_1_DTI_desikan.graphml'
p1502
aI895
aa(lp1503
S'MRN1313_FMX_1_DTI_desikan.graphml'
p1504
aI777
aa(lp1505
S'MRN1313_FN1_1_DTI_desikan.graphml'
p1506
aI941
aa(lp1507
S'MRN1313_FN2_1_DTI_desikan.graphml'
p1508
aI1173
aa(lp1509
S'MRN1313_FN6_1_DTI_desikan.graphml'
p1510
aI912
aa(lp1511
S'MRN1313_FNE_1_DTI_desikan.graphml'
p1512
aI905
aa(lp1513
S'MRN1313_FPL_1_DTI_desikan.graphml'
p1514
aI889
aa(lp1515
S'MRN1313_FQN_1_DTI_desikan.graphml'
p1516
aI883
aa(lp1517
S'MRN1313_FR6_1_DTI_desikan.graphml'
p1518
aI968
aa(lp1519
S'MRN1313_FRQ_1_DTI_desikan.graphml'
p1520
aI966
aa(lp1521
S'MRN1313_FRS_1_DTI_desikan.graphml'
p1522
aI901
aa(lp1523
S'MRN1313_FS4_1_DTI_desikan.graphml'
p1524
aI971
aa(lp1525
S'MRN1313_FS9_1_DTI_desikan.graphml'
p1526
aI825
aa(lp1527
S'MRN1313_FSN_1_DTI_desikan.graphml'
p1528
aI988
aa(lp1529
S'MRN1313_FV9_1_DTI_desikan.graphml'
p1530
aI901
aa(lp1531
S'MRN1313_FVK_1_DTI_desikan.graphml'
p1532
aI733
aa(lp1533
S'MRN1313_FW4_1_DTI_desikan.graphml'
p1534
aI924
aa(lp1535
S'MRN1313_FXP_1_DTI_desikan.graphml'
p1536
aI713
aa(lp1537
S'MRN1313_FYK_1_DTI_desikan.graphml'
p1538
aI894
aa(lp1539
S'MRN1313_FYS_1_DTI_desikan.graphml'
p1540
aI844
aa(lp1541
S'MRN1313_FZA_1_DTI_desikan.graphml'
p1542
aI1163
aa(lp1543
S'MRN1313_FZT_1_DTI_desikan.graphml'
p1544
aI928
aa(lp1545
S'MRN1313_G1K_1_DTI_desikan.graphml'
p1546
aI866
aa(lp1547
S'MRN1313_G1T_1_DTI_desikan.graphml'
p1548
aI822
aa(lp1549
S'MRN1313_G29_1_DTI_desikan.graphml'
p1550
aI988
aa(lp1551
S'MRN1313_G2E_1_DTI_desikan.graphml'
p1552
aI951
aa(lp1553
S'MRN1313_G3G_1_DTI_desikan.graphml'
p1554
aI917
aa(lp1555
S'MRN1313_G3T_1_DTI_desikan.graphml'
p1556
aI1090
aa(lp1557
S'MRN1313_G5P_1_DTI_desikan.graphml'
p1558
aI1208
aa(lp1559
S'MRN1313_G69_1_DTI_desikan.graphml'
p1560
aI879
aa(lp1561
S'MRN1313_G6P_1_DTI_desikan.graphml'
p1562
aI896
aa(lp1563
S'MRN1313_G79_1_DTI_desikan.graphml'
p1564
aI989
aa(lp1565
S'MRN1313_G7M_1_DTI_desikan.graphml'
p1566
aI949
aa(lp1567
S'MRN1313_G7P_1_DTI_desikan.graphml'
p1568
aI943
aa(lp1569
S'MRN1313_G8S_1_DTI_desikan.graphml'
p1570
aI891
aa(lp1571
S'MRN1313_G9T_1_DTI_desikan.graphml'
p1572
aI975
aa(lp1573
S'MRN1313_GA7_1_DTI_desikan.graphml'
p1574
aI945
aa(lp1575
S'MRN1313_GAA_1_DTI_desikan.graphml'
p1576
aI873
aa(lp1577
S'MRN1313_GCT_1_DTI_desikan.graphml'
p1578
aI787
aa(lp1579
S'MRN1313_GDJ_1_DTI_desikan.graphml'
p1580
aI940
aa(lp1581
S'MRN1313_GDR_1_DTI_desikan.graphml'
p1582
aI909
aa(lp1583
S'MRN1313_GDX_1_DTI_desikan.graphml'
p1584
aI979
aa(lp1585
S'MRN1313_GE6_1_DTI_desikan.graphml'
p1586
aI860
aa(lp1587
S'MRN1313_GF1_1_DTI_desikan.graphml'
p1588
aI779
aa(lp1589
S'MRN1313_GF4_1_DTI_desikan.graphml'
p1590
aI922
aa(lp1591
S'MRN1313_GH9_1_DTI_desikan.graphml'
p1592
aI1005
aa(lp1593
S'MRN1313_GHC_1_DTI_desikan.graphml'
p1594
aI1065
aa(lp1595
S'MRN1313_GHN_1_DTI_desikan.graphml'
p1596
aI954
aa(lp1597
S'MRN1313_GHT_1_DTI_desikan.graphml'
p1598
aI1229
aa(lp1599
S'MRN1313_GKS_1_DTI_desikan.graphml'
p1600
aI937
aa(lp1601
S'MRN1313_GLH_1_DTI_desikan.graphml'
p1602
aI883
aa(lp1603
S'MRN1313_GMX_1_DTI_desikan.graphml'
p1604
aI1042
aa(lp1605
S'MRN1313_GN3_1_DTI_desikan.graphml'
p1606
aI956
aa(lp1607
S'MRN1313_GN9_1_DTI_desikan.graphml'
p1608
aI883
aa(lp1609
S'MRN1313_GNZ_1_DTI_desikan.graphml'
p1610
aI734
aa(lp1611
S'MRN1313_GP3_1_DTI_desikan.graphml'
p1612
aI854
aa(lp1613
S'MRN1313_GPD_1_DTI_desikan.graphml'
p1614
aI852
aa(lp1615
S'MRN1313_GS5_1_DTI_desikan.graphml'
p1616
aI876
aa(lp1617
S'MRN1313_GSX_1_DTI_desikan.graphml'
p1618
aI1016
aa(lp1619
S'MRN1313_GTF_1_DTI_desikan.graphml'
p1620
aI845
aa(lp1621
S'MRN1313_GVA_1_DTI_desikan.graphml'
p1622
aI931
aa(lp1623
S'MRN1313_GW2_1_DTI_desikan.graphml'
p1624
aI783
aa(lp1625
S'MRN1313_GYH_1_DTI_desikan.graphml'
p1626
aI1017
aa(lp1627
S'MRN1313_GYR_1_DTI_desikan.graphml'
p1628
aI1003
aa(lp1629
S'MRN1313_GZN_1_DTI_desikan.graphml'
p1630
aI960
aa(lp1631
S'MRN1313_GZQ_1_DTI_desikan.graphml'
p1632
aI993
aa(lp1633
S'MRN1313_H18_1_DTI_desikan.graphml'
p1634
aI942
aa(lp1635
S'MRN1313_H1T_1_DTI_desikan.graphml'
p1636
aI1012
aa(lp1637
S'MRN1313_H5V_1_DTI_desikan.graphml'
p1638
aI834
aa(lp1639
S'MRN1313_H65_1_DTI_desikan.graphml'
p1640
aI1046
aa(lp1641
S'MRN1313_H76_1_DTI_desikan.graphml'
p1642
aI1058
aa(lp1643
S'MRN1313_H77_1_DTI_desikan.graphml'
p1644
aI922
aa(lp1645
S'MRN1313_H7A_1_DTI_desikan.graphml'
p1646
aI736
aa(lp1647
S'MRN1313_H88_1_DTI_desikan.graphml'
p1648
aI954
aa(lp1649
S'MRN1313_H8D_1_DTI_desikan.graphml'
p1650
aI1039
aa(lp1651
S'MRN1313_H8J_1_DTI_desikan.graphml'
p1652
aI902
aa(lp1653
S'MRN1313_H8N_1_DTI_desikan.graphml'
p1654
aI1031
aa(lp1655
S'MRN1313_H8S_1_DTI_desikan.graphml'
p1656
aI913
aa(lp1657
S'MRN1313_HAT_1_DTI_desikan.graphml'
p1658
aI953
aa(lp1659
S'MRN1313_HB5_1_DTI_desikan.graphml'
p1660
aI1010
aa(lp1661
S'MRN1313_HBN_1_DTI_desikan.graphml'
p1662
aI1095
aa(lp1663
S'MRN1313_HD3_1_DTI_desikan.graphml'
p1664
aI935
aa(lp1665
S'MRN1313_HFQ_1_DTI_desikan.graphml'
p1666
aI767
aa(lp1667
S'MRN1313_HGB_1_DTI_desikan.graphml'
p1668
aI908
aa(lp1669
S'MRN1313_HGV_1_DTI_desikan.graphml'
p1670
aI1012
aa(lp1671
S'MRN1313_HJ1_1_DTI_desikan.graphml'
p1672
aI975
aa(lp1673
S'MRN1313_HJW_1_DTI_desikan.graphml'
p1674
aI685
aa(lp1675
S'MRN1313_HLV_1_DTI_desikan.graphml'
p1676
aI922
aa(lp1677
S'MRN1313_HM6_1_DTI_desikan.graphml'
p1678
aI976
aa(lp1679
S'MRN1313_HMC_1_DTI_desikan.graphml'
p1680
aI1088
aa(lp1681
S'MRN1313_HNB_1_DTI_desikan.graphml'
p1682
aI999
aa(lp1683
S'MRN1313_HQA_1_DTI_desikan.graphml'
p1684
aI866
aa(lp1685
S'MRN1313_HQD_1_DTI_desikan.graphml'
p1686
aI976
aa(lp1687
S'MRN1313_HQN_1_DTI_desikan.graphml'
p1688
aI1089
aa(lp1689
S'MRN1313_HTG_1_DTI_desikan.graphml'
p1690
aI807
aa(lp1691
S'MRN1313_HV8_1_DTI_desikan.graphml'
p1692
aI1050
aa(lp1693
S'MRN1313_HXQ_1_DTI_desikan.graphml'
p1694
aI838
aa(lp1695
S'MRN1313_HY2_1_DTI_desikan.graphml'
p1696
aI1001
aa(lp1697
S'MRN1313_HYB_1_DTI_desikan.graphml'
p1698
aI951
aa(lp1699
S'MRN1313_HZ6_1_DTI_desikan.graphml'
p1700
aI1014
aa(lp1701
S'MRN1313_HZR_1_DTI_desikan.graphml'
p1702
aI1037
aa(lp1703
S'MRN1313_J1J_1_DTI_desikan.graphml'
p1704
aI950
aa(lp1705
S'MRN1313_J59_1_DTI_desikan.graphml'
p1706
aI1035
aa(lp1707
S'MRN1313_J5S_1_DTI_desikan.graphml'
p1708
aI856
aa(lp1709
S'MRN1313_J6B_1_DTI_desikan.graphml'
p1710
aI919
aa(lp1711
S'MRN1313_J6W_1_DTI_desikan.graphml'
p1712
aI855
aa(lp1713
S'MRN1313_J7L_1_DTI_desikan.graphml'
p1714
aI1043
aa(lp1715
S'MRN1313_J7P_1_DTI_desikan.graphml'
p1716
aI921
aa(lp1717
S'MRN1313_JAH_1_DTI_desikan.graphml'
p1718
aI1037
aa(lp1719
S'MRN1313_JAS_1_DTI_desikan.graphml'
p1720
aI1077
aa(lp1721
S'MRN1313_JBW_1_DTI_desikan.graphml'
p1722
aI1062
aa(lp1723
S'MRN1313_JC7_1_DTI_desikan.graphml'
p1724
aI1039
aa(lp1725
S'MRN1313_JCL_1_DTI_desikan.graphml'
p1726
aI918
aa(lp1727
S'MRN1313_JCR_1_DTI_desikan.graphml'
p1728
aI886
aa(lp1729
S'MRN1313_JE4_1_DTI_desikan.graphml'
p1730
aI904
aa(lp1731
S'MRN1313_JEE_1_DTI_desikan.graphml'
p1732
aI894
aa(lp1733
S'MRN1313_JEQ_1_DTI_desikan.graphml'
p1734
aI1201
aa(lp1735
S'MRN1313_JFB_1_DTI_desikan.graphml'
p1736
aI852
aa(lp1737
S'MRN1313_JFD_1_DTI_desikan.graphml'
p1738
aI951
aa(lp1739
S'MRN1313_JFP_1_DTI_desikan.graphml'
p1740
aI737
aa(lp1741
S'MRN1313_JFQ_1_DTI_desikan.graphml'
p1742
aI895
aa(lp1743
S'MRN1313_JFZ_1_DTI_desikan.graphml'
p1744
aI1120
aa(lp1745
S'MRN1313_JGM_1_DTI_desikan.graphml'
p1746
aI940
aa(lp1747
S'MRN1313_JH7_1_DTI_desikan.graphml'
p1748
aI909
aa(lp1749
S'MRN1313_JJJ_1_DTI_desikan.graphml'
p1750
aI709
aa(lp1751
S'MRN1313_JJN_1_DTI_desikan.graphml'
p1752
aI929
aa(lp1753
S'MRN1313_JJT_1_DTI_desikan.graphml'
p1754
aI864
aa(lp1755
S'MRN1313_JK2_1_DTI_desikan.graphml'
p1756
aI1005
aa(lp1757
S'MRN1313_JL7_1_DTI_desikan.graphml'
p1758
aI1107
aa(lp1759
S'MRN1313_JLF_1_DTI_desikan.graphml'
p1760
aI1064
aa(lp1761
S'MRN1313_JLP_1_DTI_desikan.graphml'
p1762
aI1033
aa(lp1763
S'MRN1313_JLS_1_DTI_desikan.graphml'
p1764
aI942
aa(lp1765
S'MRN1313_JND_1_DTI_desikan.graphml'
p1766
aI664
aa(lp1767
S'MRN1313_JNN_1_DTI_desikan.graphml'
p1768
aI1013
aa(lp1769
S'MRN1313_JSD_1_DTI_desikan.graphml'
p1770
aI1083
aa(lp1771
S'MRN1313_JSK_1_DTI_desikan.graphml'
p1772
aI1053
aa(lp1773
S'MRN1313_JV3_1_DTI_desikan.graphml'
p1774
aI947
aa(lp1775
S'MRN1313_JWP_1_DTI_desikan.graphml'
p1776
aI849
aa(lp1777
S'MRN1313_JZE_1_DTI_desikan.graphml'
p1778
aI1045
aa(lp1779
S'MRN1313_JZH_1_DTI_desikan.graphml'
p1780
aI882
aa(lp1781
S'MRN1313_K2A_1_DTI_desikan.graphml'
p1782
aI1140
aa(lp1783
S'MRN1313_K4F_1_DTI_desikan.graphml'
p1784
aI855
aa(lp1785
S'MRN1313_K4V_1_DTI_desikan.graphml'
p1786
aI921
aa(lp1787
S'MRN1313_K7M_1_DTI_desikan.graphml'
p1788
aI888
aa(lp1789
S'MRN1313_K7N_1_DTI_desikan.graphml'
p1790
aI947
aa(lp1791
S'MRN1313_K8E_1_DTI_desikan.graphml'
p1792
aI901
aa(lp1793
S'MRN1313_K8Q_1_DTI_desikan.graphml'
p1794
aI632
aa(lp1795
S'MRN1313_KA3_1_DTI_desikan.graphml'
p1796
aI917
aa(lp1797
S'MRN1313_KB6_1_DTI_desikan.graphml'
p1798
aI837
aa(lp1799
S'MRN1313_KBD_1_DTI_desikan.graphml'
p1800
aI984
aa(lp1801
S'MRN1313_KBQ_1_DTI_desikan.graphml'
p1802
aI900
aa(lp1803
S'MRN1313_KCP_1_DTI_desikan.graphml'
p1804
aI1045
aa(lp1805
S'MRN1313_KCY_1_DTI_desikan.graphml'
p1806
aI713
aa(lp1807
S'MRN1313_KE2_1_DTI_desikan.graphml'
p1808
aI623
aa(lp1809
S'MRN1313_KEE_1_DTI_desikan.graphml'
p1810
aI997
aa(lp1811
S'MRN1313_KHR_1_DTI_desikan.graphml'
p1812
aI1024
aa(lp1813
S'MRN1313_KJ2_1_DTI_desikan.graphml'
p1814
aI1032
aa(lp1815
S'MRN1313_KK1_1_DTI_desikan.graphml'
p1816
aI606
aa(lp1817
S'MRN1313_KKM_1_DTI_desikan.graphml'
p1818
aI1002
aa(lp1819
S'MRN1313_KKZ_1_DTI_desikan.graphml'
p1820
aI681
aa(lp1821
S'MRN1313_KLE_1_DTI_desikan.graphml'
p1822
aI965
aa(lp1823
S'MRN1313_KM6_1_DTI_desikan.graphml'
p1824
aI972
aa(lp1825
S'MRN1313_KMP_1_DTI_desikan.graphml'
p1826
aI762
aa(lp1827
S'MRN1313_KN7_1_DTI_desikan.graphml'
p1828
aI1218
aa(lp1829
S'MRN1313_KNZ_1_DTI_desikan.graphml'
p1830
aI1084
aa(lp1831
S'MRN1313_KPW_1_DTI_desikan.graphml'
p1832
aI903
aa(lp1833
S'MRN1313_KQL_1_DTI_desikan.graphml'
p1834
aI985
aa(lp1835
S'MRN1313_KR2_1_DTI_desikan.graphml'
p1836
aI926
aa(lp1837
S'MRN1313_KS7_1_DTI_desikan.graphml'
p1838
aI981
aa(lp1839
S'MRN1313_KV8_1_DTI_desikan.graphml'
p1840
aI915
aa(lp1841
S'MRN1313_KVQ_1_DTI_desikan.graphml'
p1842
aI935
aa(lp1843
S'MRN1313_KWT_1_DTI_desikan.graphml'
p1844
aI947
aa(lp1845
S'MRN1313_KWV_1_DTI_desikan.graphml'
p1846
aI895
aa(lp1847
S'MRN1313_KY9_1_DTI_desikan.graphml'
p1848
aI1210
aa(lp1849
S'MRN1313_KYG_1_DTI_desikan.graphml'
p1850
aI1172
aa(lp1851
S'MRN1313_KYK_1_DTI_desikan.graphml'
p1852
aI937
aa(lp1853
S'MRN1313_KYP_1_DTI_desikan.graphml'
p1854
aI899
aa(lp1855
S'MRN1313_KZH_1_DTI_desikan.graphml'
p1856
aI665
aa(lp1857
S'MRN1313_L13_1_DTI_desikan.graphml'
p1858
aI1000
aa(lp1859
S'MRN1313_L1C_1_DTI_desikan.graphml'
p1860
aI1169
aa(lp1861
S'MRN1313_L1G_1_DTI_desikan.graphml'
p1862
aI1135
aa(lp1863
S'MRN1313_L1J_1_DTI_desikan.graphml'
p1864
aI1082
aa(lp1865
S'MRN1313_L1L_1_DTI_desikan.graphml'
p1866
aI1033
aa(lp1867
S'MRN1313_L1P_1_DTI_desikan.graphml'
p1868
aI821
aa(lp1869
S'MRN1313_L2Q_1_DTI_desikan.graphml'
p1870
aI688
aa(lp1871
S'MRN1313_L2S_1_DTI_desikan.graphml'
p1872
aI1139
aa(lp1873
S'MRN1313_L33_1_DTI_desikan.graphml'
p1874
aI913
aa(lp1875
S'MRN1313_L35_1_DTI_desikan.graphml'
p1876
aI987
aa(lp1877
S'MRN1313_L3W_1_DTI_desikan.graphml'
p1878
aI689
aa(lp1879
S'MRN1313_L4S_1_DTI_desikan.graphml'
p1880
aI860
aa(lp1881
S'MRN1313_L5V_1_DTI_desikan.graphml'
p1882
aI945
aa(lp1883
S'MRN1313_L64_1_DTI_desikan.graphml'
p1884
aI1033
aa(lp1885
S'MRN1313_L6A_1_DTI_desikan.graphml'
p1886
aI961
aa(lp1887
S'MRN1313_L6M_1_DTI_desikan.graphml'
p1888
aI947
aa(lp1889
S'MRN1313_L78_1_DTI_desikan.graphml'
p1890
aI926
aa(lp1891
S'MRN1313_L87_1_DTI_desikan.graphml'
p1892
aI1118
aa(lp1893
S'MRN1313_L9H_1_DTI_desikan.graphml'
p1894
aI832
aa(lp1895
S'MRN1313_LB7_1_DTI_desikan.graphml'
p1896
aI935
aa(lp1897
S'MRN1313_LBE_1_DTI_desikan.graphml'
p1898
aI1060
aa(lp1899
S'MRN1313_LBW_1_DTI_desikan.graphml'
p1900
aI970
aa(lp1901
S'MRN1313_LCE_1_DTI_desikan.graphml'
p1902
aI945
aa(lp1903
S'MRN1313_LCW_1_DTI_desikan.graphml'
p1904
aI1089
aa(lp1905
S'MRN1313_LCY_1_DTI_desikan.graphml'
p1906
aI974
aa(lp1907
S'MRN1313_LEX_1_DTI_desikan.graphml'
p1908
aI931
aa(lp1909
S'MRN1313_LFE_1_DTI_desikan.graphml'
p1910
aI953
aa(lp1911
S'MRN1313_LFK_1_DTI_desikan.graphml'
p1912
aI843
aa(lp1913
S'MRN1313_LFP_1_DTI_desikan.graphml'
p1914
aI900
aa(lp1915
S'MRN1313_LH3_1_DTI_desikan.graphml'
p1916
aI1148
aa(lp1917
S'MRN1313_LK4_1_DTI_desikan.graphml'
p1918
aI961
aa(lp1919
S'MRN1313_LL2_1_DTI_desikan.graphml'
p1920
aI907
aa(lp1921
S'MRN1313_LL5_1_DTI_desikan.graphml'
p1922
aI944
aa(lp1923
S'MRN1313_LM2_1_DTI_desikan.graphml'
p1924
aI925
aa(lp1925
S'MRN1313_LMA_1_DTI_desikan.graphml'
p1926
aI929
aa(lp1927
S'MRN1313_LMK_1_DTI_desikan.graphml'
p1928
aI936
aa(lp1929
S'MRN1313_LNT_1_DTI_desikan.graphml'
p1930
aI896
aa(lp1931
S'MRN1313_LTE_1_DTI_desikan.graphml'
p1932
aI912
aa(lp1933
S'MRN1313_LTK_1_DTI_desikan.graphml'
p1934
aI782
aa(lp1935
S'MRN1313_LVS_1_DTI_desikan.graphml'
p1936
aI1053
aa(lp1937
S'MRN1313_LWE_1_DTI_desikan.graphml'
p1938
aI1002
aa(lp1939
S'MRN1313_LWL_1_DTI_desikan.graphml'
p1940
aI855
aa(lp1941
S'MRN1313_LXK_1_DTI_desikan.graphml'
p1942
aI987
aa(lp1943
S'MRN1313_LXY_1_DTI_desikan.graphml'
p1944
aI958
aa(lp1945
S'MRN1313_LY9_1_DTI_desikan.graphml'
p1946
aI736
aa(lp1947
S'MRN1313_LYB_1_DTI_desikan.graphml'
p1948
aI1016
aa(lp1949
S'MRN1313_LZS_1_DTI_desikan.graphml'
p1950
aI946
aa(lp1951
S'MRN1313_M2J_1_DTI_desikan.graphml'
p1952
aI923
aa(lp1953
S'MRN1313_M2Q_1_DTI_desikan.graphml'
p1954
aI967
aa(lp1955
S'MRN1313_M38_1_DTI_desikan.graphml'
p1956
aI876
aa(lp1957
S'MRN1313_M44_1_DTI_desikan.graphml'
p1958
aI1044
aa(lp1959
S'MRN1313_M4P_1_DTI_desikan.graphml'
p1960
aI865
aa(lp1961
S'MRN1313_M58_1_DTI_desikan.graphml'
p1962
aI974
aa(lp1963
S'MRN1313_M74_1_DTI_desikan.graphml'
p1964
aI991
aa(lp1965
S'MRN1313_M8S_1_DTI_desikan.graphml'
p1966
aI1236
aa(lp1967
S'MRN1313_M98_1_DTI_desikan.graphml'
p1968
aI769
aa(lp1969
S'MRN1313_MB2_1_DTI_desikan.graphml'
p1970
aI872
aa(lp1971
S'MRN1313_MB8_1_DTI_desikan.graphml'
p1972
aI1141
aa(lp1973
S'MRN1313_MBP_1_DTI_desikan.graphml'
p1974
aI957
aa(lp1975
S'MRN1313_MBT_1_DTI_desikan.graphml'
p1976
aI1109
aa(lp1977
S'MRN1313_MC2_1_DTI_desikan.graphml'
p1978
aI887
aa(lp1979
S'MRN1313_MCA_1_DTI_desikan.graphml'
p1980
aI1025
aa(lp1981
S'MRN1313_MCN_1_DTI_desikan.graphml'
p1982
aI854
aa(lp1983
S'MRN1313_MDJ_1_DTI_desikan.graphml'
p1984
aI842
aa(lp1985
S'MRN1313_MDX_1_DTI_desikan.graphml'
p1986
aI1011
aa(lp1987
S'MRN1313_MDZ_1_DTI_desikan.graphml'
p1988
aI1113
aa(lp1989
S'MRN1313_MEA_1_DTI_desikan.graphml'
p1990
aI983
aa(lp1991
S'MRN1313_MEN_1_DTI_desikan.graphml'
p1992
aI911
aa(lp1993
S'MRN1313_MFA_1_DTI_desikan.graphml'
p1994
aI1017
aa(lp1995
S'MRN1313_MFN_1_DTI_desikan.graphml'
p1996
aI696
aa(lp1997
S'MRN1313_MHB_1_DTI_desikan.graphml'
p1998
aI1036
aa(lp1999
S'MRN1313_MJK_1_DTI_desikan.graphml'
p2000
aI740
aa(lp2001
S'MRN1313_MLD_1_DTI_desikan.graphml'
p2002
aI902
aa(lp2003
S'MRN1313_MM2_1_DTI_desikan.graphml'
p2004
aI900
aa(lp2005
S'MRN1313_MM3_1_DTI_desikan.graphml'
p2006
aI954
aa(lp2007
S'MRN1313_MN5_1_DTI_desikan.graphml'
p2008
aI948
aa(lp2009
S'MRN1313_MN6_1_DTI_desikan.graphml'
p2010
aI1098
aa(lp2011
S'MRN1313_MNY_1_DTI_desikan.graphml'
p2012
aI652
aa(lp2013
S'MRN1313_MP5_1_DTI_desikan.graphml'
p2014
aI1005
aa(lp2015
S'MRN1313_MRB_1_DTI_desikan.graphml'
p2016
aI1116
aa(lp2017
S'MRN1313_MRZ_1_DTI_desikan.graphml'
p2018
aI579
aa(lp2019
S'MRN1313_MT2_1_DTI_desikan.graphml'
p2020
aI855
aa(lp2021
S'MRN1313_MTA_1_DTI_desikan.graphml'
p2022
aI855
aa(lp2023
S'MRN1313_MTM_1_DTI_desikan.graphml'
p2024
aI944
aa(lp2025
S'MRN1313_MTR_1_DTI_desikan.graphml'
p2026
aI935
aa(lp2027
S'MRN1313_MVJ_1_DTI_desikan.graphml'
p2028
aI1101
aa(lp2029
S'MRN1313_MVR_1_DTI_desikan.graphml'
p2030
aI989
aa(lp2031
S'MRN1313_MWR_1_DTI_desikan.graphml'
p2032
aI881
aa(lp2033
S'MRN1313_N14_1_DTI_desikan.graphml'
p2034
aI642
aa(lp2035
S'MRN1313_N55_1_DTI_desikan.graphml'
p2036
aI918
aa(lp2037
S'MRN1313_N5C_1_DTI_desikan.graphml'
p2038
aI1104
aa(lp2039
S'MRN1313_N6D_1_DTI_desikan.graphml'
p2040
aI937
aa(lp2041
S'MRN1313_N8L_1_DTI_desikan.graphml'
p2042
aI969
aa(lp2043
S'MRN1313_N8P_1_DTI_desikan.graphml'
p2044
aI845
aa(lp2045
S'MRN1313_N9V_1_DTI_desikan.graphml'
p2046
aI1036
aa(lp2047
S'MRN1313_NA9_1_DTI_desikan.graphml'
p2048
aI1022
aa(lp2049
S'MRN1313_NAJ_1_DTI_desikan.graphml'
p2050
aI890
aa(lp2051
S'MRN1313_NAW_1_DTI_desikan.graphml'
p2052
aI942
aa(lp2053
S'MRN1313_NBD_1_DTI_desikan.graphml'
p2054
aI1146
aa(lp2055
S'MRN1313_NC4_1_DTI_desikan.graphml'
p2056
aI829
aa(lp2057
S'MRN1313_NDT_1_DTI_desikan.graphml'
p2058
aI982
aa(lp2059
S'MRN1313_NF6_1_DTI_desikan.graphml'
p2060
aI947
aa(lp2061
S'MRN1313_NGG_1_DTI_desikan.graphml'
p2062
aI1219
aa(lp2063
S'MRN1313_NH7_1_DTI_desikan.graphml'
p2064
aI991
aa(lp2065
S'MRN1313_NJH_1_DTI_desikan.graphml'
p2066
aI1117
aa(lp2067
S'MRN1313_NJY_1_DTI_desikan.graphml'
p2068
aI890
aa(lp2069
S'MRN1313_NLB_1_DTI_desikan.graphml'
p2070
aI1210
aa(lp2071
S'MRN1313_NLF_1_DTI_desikan.graphml'
p2072
aI912
aa(lp2073
S'MRN1313_NNY_1_DTI_desikan.graphml'
p2074
aI929
aa(lp2075
S'MRN1313_NPS_1_DTI_desikan.graphml'
p2076
aI934
aa(lp2077
S'MRN1313_NQL_1_DTI_desikan.graphml'
p2078
aI973
aa(lp2079
S'MRN1313_NRB_1_DTI_desikan.graphml'
p2080
aI990
aa(lp2081
S'MRN1313_NRF_1_DTI_desikan.graphml'
p2082
aI1055
aa(lp2083
S'MRN1313_NSC_1_DTI_desikan.graphml'
p2084
aI936
aa(lp2085
S'MRN1313_NTE_1_DTI_desikan.graphml'
p2086
aI891
aa(lp2087
S'MRN1313_NTF_1_DTI_desikan.graphml'
p2088
aI902
aa(lp2089
S'MRN1313_NW5_1_DTI_desikan.graphml'
p2090
aI940
aa(lp2091
S'MRN1313_NX7_1_DTI_desikan.graphml'
p2092
aI853
aa(lp2093
S'MRN1313_NXT_1_DTI_desikan.graphml'
p2094
aI1022
aa(lp2095
S'MRN1313_NZ1_1_DTI_desikan.graphml'
p2096
aI1054
aa(lp2097
S'MRN1313_P14_1_DTI_desikan.graphml'
p2098
aI1210
aa(lp2099
S'MRN1313_P1A_1_DTI_desikan.graphml'
p2100
aI961
aa(lp2101
S'MRN1313_P4X_1_DTI_desikan.graphml'
p2102
aI943
aa(lp2103
S'MRN1313_P54_1_DTI_desikan.graphml'
p2104
aI860
aa(lp2105
S'MRN1313_P5N_1_DTI_desikan.graphml'
p2106
aI1164
aa(lp2107
S'MRN1313_P6N_1_DTI_desikan.graphml'
p2108
aI936
aa(lp2109
S'MRN1313_P75_1_DTI_desikan.graphml'
p2110
aI966
aa(lp2111
S'MRN1313_P7D_1_DTI_desikan.graphml'
p2112
aI944
aa(lp2113
S'MRN1313_P86_1_DTI_desikan.graphml'
p2114
aI894
aa(lp2115
S'MRN1313_P8G_1_DTI_desikan.graphml'
p2116
aI949
aa(lp2117
S'MRN1313_P8X_1_DTI_desikan.graphml'
p2118
aI871
aa(lp2119
S'MRN1313_PAH_1_DTI_desikan.graphml'
p2120
aI944
aa(lp2121
S'MRN1313_PBS_1_DTI_desikan.graphml'
p2122
aI934
aa(lp2123
S'MRN1313_PC8_1_DTI_desikan.graphml'
p2124
aI909
aa(lp2125
S'MRN1313_PCC_1_DTI_desikan.graphml'
p2126
aI932
aa(lp2127
S'MRN1313_PCG_1_DTI_desikan.graphml'
p2128
aI1048
aa(lp2129
S'MRN1313_PDA_1_DTI_desikan.graphml'
p2130
aI925
aa(lp2131
S'MRN1313_PDE_1_DTI_desikan.graphml'
p2132
aI890
aa(lp2133
S'MRN1313_PDY_1_DTI_desikan.graphml'
p2134
aI839
aa(lp2135
S'MRN1313_PFX_1_DTI_desikan.graphml'
p2136
aI979
aa(lp2137
S'MRN1313_PG1_1_DTI_desikan.graphml'
p2138
aI1040
aa(lp2139
S'MRN1313_PGK_1_DTI_desikan.graphml'
p2140
aI811
aa(lp2141
S'MRN1313_PGM_1_DTI_desikan.graphml'
p2142
aI925
aa(lp2143
S'MRN1313_PGS_1_DTI_desikan.graphml'
p2144
aI929
aa(lp2145
S'MRN1313_PGT_1_DTI_desikan.graphml'
p2146
aI937
aa(lp2147
S'MRN1313_PH8_1_DTI_desikan.graphml'
p2148
aI777
aa(lp2149
S'MRN1313_PH9_1_DTI_desikan.graphml'
p2150
aI977
aa(lp2151
S'MRN1313_PHB_1_DTI_desikan.graphml'
p2152
aI919
aa(lp2153
S'MRN1313_PHZ_1_DTI_desikan.graphml'
p2154
aI801
aa(lp2155
S'MRN1313_PJ9_1_DTI_desikan.graphml'
p2156
aI893
aa(lp2157
S'MRN1313_PJC_1_DTI_desikan.graphml'
p2158
aI999
aa(lp2159
S'MRN1313_PK7_1_DTI_desikan.graphml'
p2160
aI983
aa(lp2161
S'MRN1313_PKS_1_DTI_desikan.graphml'
p2162
aI1149
aa(lp2163
S'MRN1313_PLJ_1_DTI_desikan.graphml'
p2164
aI1108
aa(lp2165
S'MRN1313_PNB_1_DTI_desikan.graphml'
p2166
aI905
aa(lp2167
S'MRN1313_PNS_1_DTI_desikan.graphml'
p2168
aI1033
aa(lp2169
S'MRN1313_PP2_1_DTI_desikan.graphml'
p2170
aI1046
aa(lp2171
S'MRN1313_PPP_1_DTI_desikan.graphml'
p2172
aI1062
aa(lp2173
S'MRN1313_PQN_1_DTI_desikan.graphml'
p2174
aI917
aa(lp2175
S'MRN1313_PRK_1_DTI_desikan.graphml'
p2176
aI866
aa(lp2177
S'MRN1313_PV3_1_DTI_desikan.graphml'
p2178
aI979
aa(lp2179
S'MRN1313_PWM_1_DTI_desikan.graphml'
p2180
aI830
aa(lp2181
S'MRN1313_PWZ_1_DTI_desikan.graphml'
p2182
aI1027
aa(lp2183
S'MRN1313_PX2_1_DTI_desikan.graphml'
p2184
aI1079
aa(lp2185
S'MRN1313_PXN_1_DTI_desikan.graphml'
p2186
aI941
aa(lp2187
S'MRN1313_PY3_1_DTI_desikan.graphml'
p2188
aI1063
aa(lp2189
S'MRN1313_PYA_1_DTI_desikan.graphml'
p2190
aI693
aa(lp2191
S'MRN1313_PZB_1_DTI_desikan.graphml'
p2192
aI615
aa(lp2193
S'MRN1313_Q3A_1_DTI_desikan.graphml'
p2194
aI1267
aa(lp2195
S'MRN1313_Q4D_1_DTI_desikan.graphml'
p2196
aI945
aa(lp2197
S'MRN1313_Q4S_1_DTI_desikan.graphml'
p2198
aI1111
aa(lp2199
S'MRN1313_Q4V_1_DTI_desikan.graphml'
p2200
aI927
aa(lp2201
S'MRN1313_Q5S_1_DTI_desikan.graphml'
p2202
aI921
aa(lp2203
S'MRN1313_Q6H_1_DTI_desikan.graphml'
p2204
aI950
aa(lp2205
S'MRN1313_Q6T_1_DTI_desikan.graphml'
p2206
aI978
aa(lp2207
S'MRN1313_Q73_1_DTI_desikan.graphml'
p2208
aI998
aa(lp2209
S'MRN1313_Q99_1_DTI_desikan.graphml'
p2210
aI1154
aa(lp2211
S'MRN1313_Q9Y_1_DTI_desikan.graphml'
p2212
aI1041
aa(lp2213
S'MRN1313_QAK_1_DTI_desikan.graphml'
p2214
aI923
aa(lp2215
S'MRN1313_QB7_1_DTI_desikan.graphml'
p2216
aI1062
aa(lp2217
S'MRN1313_QCN_1_DTI_desikan.graphml'
p2218
aI944
aa(lp2219
S'MRN1313_QCV_1_DTI_desikan.graphml'
p2220
aI1046
aa(lp2221
S'MRN1313_QEE_1_DTI_desikan.graphml'
p2222
aI1000
aa(lp2223
S'MRN1313_QEM_1_DTI_desikan.graphml'
p2224
aI961
aa(lp2225
S'MRN1313_QEV_1_DTI_desikan.graphml'
p2226
aI679
aa(lp2227
S'MRN1313_QGS_1_DTI_desikan.graphml'
p2228
aI1129
aa(lp2229
S'MRN1313_QGT_1_DTI_desikan.graphml'
p2230
aI850
aa(lp2231
S'MRN1313_QHF_1_DTI_desikan.graphml'
p2232
aI953
aa(lp2233
S'MRN1313_QHM_1_DTI_desikan.graphml'
p2234
aI916
aa(lp2235
S'MRN1313_QHP_1_DTI_desikan.graphml'
p2236
aI946
aa(lp2237
S'MRN1313_QJH_1_DTI_desikan.graphml'
p2238
aI943
aa(lp2239
S'MRN1313_QJZ_1_DTI_desikan.graphml'
p2240
aI1135
aa(lp2241
S'MRN1313_QLE_1_DTI_desikan.graphml'
p2242
aI945
aa(lp2243
S'MRN1313_QLX_1_DTI_desikan.graphml'
p2244
aI1013
aa(lp2245
S'MRN1313_QMN_1_DTI_desikan.graphml'
p2246
aI956
aa(lp2247
S'MRN1313_QP7_1_DTI_desikan.graphml'
p2248
aI1036
aa(lp2249
S'MRN1313_QPE_1_DTI_desikan.graphml'
p2250
aI842
aa(lp2251
S'MRN1313_QPF_1_DTI_desikan.graphml'
p2252
aI967
aa(lp2253
S'MRN1313_QQC_1_DTI_desikan.graphml'
p2254
aI949
aa(lp2255
S'MRN1313_QQH_1_DTI_desikan.graphml'
p2256
aI951
aa(lp2257
S'MRN1313_QQM_1_DTI_desikan.graphml'
p2258
aI862
aa(lp2259
S'MRN1313_QQR_1_DTI_desikan.graphml'
p2260
aI1249
aa(lp2261
S'MRN1313_QRY_1_DTI_desikan.graphml'
p2262
aI1039
aa(lp2263
S'MRN1313_QSZ_1_DTI_desikan.graphml'
p2264
aI969
aa(lp2265
S'MRN1313_QTF_1_DTI_desikan.graphml'
p2266
aI913
aa(lp2267
S'MRN1313_QTY_1_DTI_desikan.graphml'
p2268
aI1054
aa(lp2269
S'MRN1313_QW1_1_DTI_desikan.graphml'
p2270
aI956
aa(lp2271
S'MRN1313_QXH_1_DTI_desikan.graphml'
p2272
aI968
aa(lp2273
S'MRN1313_QXJ_1_DTI_desikan.graphml'
p2274
aI1334
aa(lp2275
S'MRN1313_QXR_1_DTI_desikan.graphml'
p2276
aI820
aa(lp2277
S'MRN1313_QZ6_1_DTI_desikan.graphml'
p2278
aI941
aa(lp2279
S'MRN1313_QZL_1_DTI_desikan.graphml'
p2280
aI947
aa(lp2281
S'MRN1313_R2E_1_DTI_desikan.graphml'
p2282
aI870
aa(lp2283
S'MRN1313_R3K_1_DTI_desikan.graphml'
p2284
aI1132
aa(lp2285
S'MRN1313_R5R_1_DTI_desikan.graphml'
p2286
aI936
aa(lp2287
S'MRN1313_R68_1_DTI_desikan.graphml'
p2288
aI830
aa(lp2289
S'MRN1313_R6H_1_DTI_desikan.graphml'
p2290
aI1018
aa(lp2291
S'MRN1313_R9B_1_DTI_desikan.graphml'
p2292
aI1048
aa(lp2293
S'MRN1313_R9C_1_DTI_desikan.graphml'
p2294
aI963
aa(lp2295
S'MRN1313_RA2_1_DTI_desikan.graphml'
p2296
aI832
aa(lp2297
S'MRN1313_RAA_1_DTI_desikan.graphml'
p2298
aI819
aa(lp2299
S'MRN1313_RC6_1_DTI_desikan.graphml'
p2300
aI976
aa(lp2301
S'MRN1313_RCA_1_DTI_desikan.graphml'
p2302
aI1229
aa(lp2303
S'MRN1313_RD5_1_DTI_desikan.graphml'
p2304
aI894
aa(lp2305
S'MRN1313_RDT_1_DTI_desikan.graphml'
p2306
aI929
aa(lp2307
S'MRN1313_RDX_1_DTI_desikan.graphml'
p2308
aI1003
aa(lp2309
S'MRN1313_REN_1_DTI_desikan.graphml'
p2310
aI1068
aa(lp2311
S'MRN1313_RF4_1_DTI_desikan.graphml'
p2312
aI843
aa(lp2313
S'MRN1313_RFG_1_DTI_desikan.graphml'
p2314
aI884
aa(lp2315
S'MRN1313_RFY_1_DTI_desikan.graphml'
p2316
aI924
aa(lp2317
S'MRN1313_RGC_1_DTI_desikan.graphml'
p2318
aI685
aa(lp2319
S'MRN1313_RGH_1_DTI_desikan.graphml'
p2320
aI888
aa(lp2321
S'MRN1313_RHC_1_DTI_desikan.graphml'
p2322
aI944
aa(lp2323
S'MRN1313_RHE_1_DTI_desikan.graphml'
p2324
aI947
aa(lp2325
S'MRN1313_RK8_1_DTI_desikan.graphml'
p2326
aI736
aa(lp2327
S'MRN1313_RKA_1_DTI_desikan.graphml'
p2328
aI903
aa(lp2329
S'MRN1313_RKD_1_DTI_desikan.graphml'
p2330
aI989
aa(lp2331
S'MRN1313_RKH_1_DTI_desikan.graphml'
p2332
aI1051
aa(lp2333
S'MRN1313_RKS_1_DTI_desikan.graphml'
p2334
aI1073
aa(lp2335
S'MRN1313_RKT_1_DTI_desikan.graphml'
p2336
aI857
aa(lp2337
S'MRN1313_RLC_1_DTI_desikan.graphml'
p2338
aI859
aa(lp2339
S'MRN1313_RLJ_1_DTI_desikan.graphml'
p2340
aI921
aa(lp2341
S'MRN1313_RLY_1_DTI_desikan.graphml'
p2342
aI1008
aa(lp2343
S'MRN1313_RLZ_1_DTI_desikan.graphml'
p2344
aI932
aa(lp2345
S'MRN1313_RM3_1_DTI_desikan.graphml'
p2346
aI1084
aa(lp2347
S'MRN1313_RMN_1_DTI_desikan.graphml'
p2348
aI1091
aa(lp2349
S'MRN1313_RNL_1_DTI_desikan.graphml'
p2350
aI982
aa(lp2351
S'MRN1313_RPQ_1_DTI_desikan.graphml'
p2352
aI858
aa(lp2353
S'MRN1313_RVX_1_DTI_desikan.graphml'
p2354
aI889
aa(lp2355
S'MRN1313_RWG_1_DTI_desikan.graphml'
p2356
aI940
aa(lp2357
S'MRN1313_RXD_1_DTI_desikan.graphml'
p2358
aI992
aa(lp2359
S'MRN1313_RY3_1_DTI_desikan.graphml'
p2360
aI982
aa(lp2361
S'MRN1313_RY6_1_DTI_desikan.graphml'
p2362
aI847
aa(lp2363
S'MRN1313_RZ5_1_DTI_desikan.graphml'
p2364
aI916
aa(lp2365
S'MRN1313_S1F_1_DTI_desikan.graphml'
p2366
aI786
aa(lp2367
S'MRN1313_S29_1_DTI_desikan.graphml'
p2368
aI997
aa(lp2369
S'MRN1313_S2A_1_DTI_desikan.graphml'
p2370
aI967
aa(lp2371
S'MRN1313_S2W_1_DTI_desikan.graphml'
p2372
aI783
aa(lp2373
S'MRN1313_S32_1_DTI_desikan.graphml'
p2374
aI799
aa(lp2375
S'MRN1313_S3F_1_DTI_desikan.graphml'
p2376
aI974
aa(lp2377
S'MRN1313_S3S_1_DTI_desikan.graphml'
p2378
aI919
aa(lp2379
S'MRN1313_S4B_1_DTI_desikan.graphml'
p2380
aI842
aa(lp2381
S'MRN1313_S5C_1_DTI_desikan.graphml'
p2382
aI941
aa(lp2383
S'MRN1313_S68_1_DTI_desikan.graphml'
p2384
aI897
aa(lp2385
S'MRN1313_S6H_1_DTI_desikan.graphml'
p2386
aI870
aa(lp2387
S'MRN1313_S6S_1_DTI_desikan.graphml'
p2388
aI985
aa(lp2389
S'MRN1313_S6V_1_DTI_desikan.graphml'
p2390
aI954
aa(lp2391
S'MRN1313_S6W_1_DTI_desikan.graphml'
p2392
aI956
aa(lp2393
S'MRN1313_S8J_1_DTI_desikan.graphml'
p2394
aI1159
aa(lp2395
S'MRN1313_S8S_1_DTI_desikan.graphml'
p2396
aI910
aa(lp2397
S'MRN1313_S9S_1_DTI_desikan.graphml'
p2398
aI906
aa(lp2399
S'MRN1313_S9X_1_DTI_desikan.graphml'
p2400
aI1077
aa(lp2401
S'MRN1313_SAB_1_DTI_desikan.graphml'
p2402
aI802
aa(lp2403
S'MRN1313_SAH_1_DTI_desikan.graphml'
p2404
aI908
aa(lp2405
S'MRN1313_SBZ_1_DTI_desikan.graphml'
p2406
aI1087
aa(lp2407
S'MRN1313_SCG_1_DTI_desikan.graphml'
p2408
aI953
aa(lp2409
S'MRN1313_SDJ_1_DTI_desikan.graphml'
p2410
aI947
aa(lp2411
S'MRN1313_SDX_1_DTI_desikan.graphml'
p2412
aI683
aa(lp2413
S'MRN1313_SED_1_DTI_desikan.graphml'
p2414
aI745
aa(lp2415
S'MRN1313_SEK_1_DTI_desikan.graphml'
p2416
aI1127
aa(lp2417
S'MRN1313_SEM_1_DTI_desikan.graphml'
p2418
aI1004
aa(lp2419
S'MRN1313_SFQ_1_DTI_desikan.graphml'
p2420
aI1046
aa(lp2421
S'MRN1313_SFX_1_DTI_desikan.graphml'
p2422
aI997
aa(lp2423
S'MRN1313_SFZ_1_DTI_desikan.graphml'
p2424
aI924
aa(lp2425
S'MRN1313_SHM_1_DTI_desikan.graphml'
p2426
aI673
aa(lp2427
S'MRN1313_SJ2_1_DTI_desikan.graphml'
p2428
aI937
aa(lp2429
S'MRN1313_SJG_1_DTI_desikan.graphml'
p2430
aI1019
aa(lp2431
S'MRN1313_SJW_1_DTI_desikan.graphml'
p2432
aI1098
aa(lp2433
S'MRN1313_SK9_1_DTI_desikan.graphml'
p2434
aI699
aa(lp2435
S'MRN1313_SKD_1_DTI_desikan.graphml'
p2436
aI1034
aa(lp2437
S'MRN1313_SKW_1_DTI_desikan.graphml'
p2438
aI1011
aa(lp2439
S'MRN1313_SLE_1_DTI_desikan.graphml'
p2440
aI923
aa(lp2441
S'MRN1313_SLH_1_DTI_desikan.graphml'
p2442
aI1092
aa(lp2443
S'MRN1313_SLJ_1_DTI_desikan.graphml'
p2444
aI1028
aa(lp2445
S'MRN1313_SNQ_1_DTI_desikan.graphml'
p2446
aI936
aa(lp2447
S'MRN1313_SPY_1_DTI_desikan.graphml'
p2448
aI936
aa(lp2449
S'MRN1313_SQN_1_DTI_desikan.graphml'
p2450
aI1098
aa(lp2451
S'MRN1313_SQS_1_DTI_desikan.graphml'
p2452
aI1043
aa(lp2453
S'MRN1313_SRR_1_DTI_desikan.graphml'
p2454
aI983
aa(lp2455
S'MRN1313_SSZ_1_DTI_desikan.graphml'
p2456
aI1037
aa(lp2457
S'MRN1313_STD_1_DTI_desikan.graphml'
p2458
aI906
aa(lp2459
S'MRN1313_SXT_1_DTI_desikan.graphml'
p2460
aI962
aa(lp2461
S'MRN1313_SY6_1_DTI_desikan.graphml'
p2462
aI944
aa(lp2463
S'MRN1313_SYT_1_DTI_desikan.graphml'
p2464
aI752
aa(lp2465
S'MRN1313_SYW_1_DTI_desikan.graphml'
p2466
aI986
aa(lp2467
S'MRN1313_SZG_1_DTI_desikan.graphml'
p2468
aI996
aa(lp2469
S'MRN1313_SZS_1_DTI_desikan.graphml'
p2470
aI844
aa(lp2471
S'MRN1313_T1V_1_DTI_desikan.graphml'
p2472
aI1089
aa(lp2473
S'MRN1313_T4R_1_DTI_desikan.graphml'
p2474
aI1085
aa(lp2475
S'MRN1313_T6J_1_DTI_desikan.graphml'
p2476
aI773
aa(lp2477
S'MRN1313_T7J_1_DTI_desikan.graphml'
p2478
aI956
aa(lp2479
S'MRN1313_T8G_1_DTI_desikan.graphml'
p2480
aI1007
aa(lp2481
S'MRN1313_TA4_1_DTI_desikan.graphml'
p2482
aI938
aa(lp2483
S'MRN1313_TAY_1_DTI_desikan.graphml'
p2484
aI964
aa(lp2485
S'MRN1313_TBH_1_DTI_desikan.graphml'
p2486
aI994
aa(lp2487
S'MRN1313_TE5_1_DTI_desikan.graphml'
p2488
aI993
aa(lp2489
S'MRN1313_TE6_1_DTI_desikan.graphml'
p2490
aI921
aa(lp2491
S'MRN1313_TEN_1_DTI_desikan.graphml'
p2492
aI968
aa(lp2493
S'MRN1313_TER_1_DTI_desikan.graphml'
p2494
aI979
aa(lp2495
S'MRN1313_TEV_1_DTI_desikan.graphml'
p2496
aI728
aa(lp2497
S'MRN1313_TFB_1_DTI_desikan.graphml'
p2498
aI1019
aa(lp2499
S'MRN1313_TFZ_1_DTI_desikan.graphml'
p2500
aI1053
aa(lp2501
S'MRN1313_TGM_1_DTI_desikan.graphml'
p2502
aI917
aa(lp2503
S'MRN1313_THF_1_DTI_desikan.graphml'
p2504
aI986
aa(lp2505
S'MRN1313_THH_1_DTI_desikan.graphml'
p2506
aI1013
aa(lp2507
S'MRN1313_TJ2_1_DTI_desikan.graphml'
p2508
aI918
aa(lp2509
S'MRN1313_TJF_1_DTI_desikan.graphml'
p2510
aI765
aa(lp2511
S'MRN1313_TJG_1_DTI_desikan.graphml'
p2512
aI941
aa(lp2513
S'MRN1313_TJL_1_DTI_desikan.graphml'
p2514
aI983
aa(lp2515
S'MRN1313_TK1_1_DTI_desikan.graphml'
p2516
aI757
aa(lp2517
S'MRN1313_TKN_1_DTI_desikan.graphml'
p2518
aI1058
aa(lp2519
S'MRN1313_TL1_1_DTI_desikan.graphml'
p2520
aI971
aa(lp2521
S'MRN1313_TL6_1_DTI_desikan.graphml'
p2522
aI944
aa(lp2523
S'MRN1313_TND_1_DTI_desikan.graphml'
p2524
aI822
aa(lp2525
S'MRN1313_TP4_1_DTI_desikan.graphml'
p2526
aI1000
aa(lp2527
S'MRN1313_TPG_1_DTI_desikan.graphml'
p2528
aI784
aa(lp2529
S'MRN1313_TQC_1_DTI_desikan.graphml'
p2530
aI958
aa(lp2531
S'MRN1313_TQN_1_DTI_desikan.graphml'
p2532
aI1115
aa(lp2533
S'MRN1313_TQX_1_DTI_desikan.graphml'
p2534
aI1089
aa(lp2535
S'MRN1313_TRZ_1_DTI_desikan.graphml'
p2536
aI922
aa(lp2537
S'MRN1313_TSW_1_DTI_desikan.graphml'
p2538
aI949
aa(lp2539
S'MRN1313_TT5_1_DTI_desikan.graphml'
p2540
aI1007
aa(lp2541
S'MRN1313_TT7_1_DTI_desikan.graphml'
p2542
aI1080
aa(lp2543
S'MRN1313_TTB_1_DTI_desikan.graphml'
p2544
aI1118
aa(lp2545
S'MRN1313_TTF_1_DTI_desikan.graphml'
p2546
aI821
aa(lp2547
S'MRN1313_TVF_1_DTI_desikan.graphml'
p2548
aI985
aa(lp2549
S'MRN1313_TW1_1_DTI_desikan.graphml'
p2550
aI1187
aa(lp2551
S'MRN1313_TWJ_1_DTI_desikan.graphml'
p2552
aI1041
aa(lp2553
S'MRN1313_TXH_1_DTI_desikan.graphml'
p2554
aI923
aa(lp2555
S'MRN1313_TXQ_1_DTI_desikan.graphml'
p2556
aI1016
aa(lp2557
S'MRN1313_TXT_1_DTI_desikan.graphml'
p2558
aI1124
aa(lp2559
S'MRN1313_TXZ_1_DTI_desikan.graphml'
p2560
aI1105
aa(lp2561
S'MRN1313_TY2_1_DTI_desikan.graphml'
p2562
aI1122
aa(lp2563
S'MRN1313_TYJ_1_DTI_desikan.graphml'
p2564
aI975
aa(lp2565
S'MRN1313_TZ2_1_DTI_desikan.graphml'
p2566
aI886
aa(lp2567
S'MRN1313_TZA_1_DTI_desikan.graphml'
p2568
aI926
aa(lp2569
S'MRN1313_V1Z_1_DTI_desikan.graphml'
p2570
aI790
aa(lp2571
S'MRN1313_V3Z_1_DTI_desikan.graphml'
p2572
aI1247
aa(lp2573
S'MRN1313_V5P_1_DTI_desikan.graphml'
p2574
aI922
aa(lp2575
S'MRN1313_V6R_1_DTI_desikan.graphml'
p2576
aI954
aa(lp2577
S'MRN1313_V6T_1_DTI_desikan.graphml'
p2578
aI971
aa(lp2579
S'MRN1313_V81_1_DTI_desikan.graphml'
p2580
aI977
aa(lp2581
S'MRN1313_V96_1_DTI_desikan.graphml'
p2582
aI1064
aa(lp2583
S'MRN1313_VAG_1_DTI_desikan.graphml'
p2584
aI907
aa(lp2585
S'MRN1313_VBR_1_DTI_desikan.graphml'
p2586
aI1005
aa(lp2587
S'MRN1313_VCT_1_DTI_desikan.graphml'
p2588
aI986
aa(lp2589
S'MRN1313_VG9_1_DTI_desikan.graphml'
p2590
aI951
aa(lp2591
S'MRN1313_VHN_1_DTI_desikan.graphml'
p2592
aI1086
aa(lp2593
S'MRN1313_VHZ_1_DTI_desikan.graphml'
p2594
aI1082
aa(lp2595
S'MRN1313_VJM_1_DTI_desikan.graphml'
p2596
aI920
aa(lp2597
S'MRN1313_VJX_1_DTI_desikan.graphml'
p2598
aI695
aa(lp2599
S'MRN1313_VK3_1_DTI_desikan.graphml'
p2600
aI978
aa(lp2601
S'MRN1313_VKS_1_DTI_desikan.graphml'
p2602
aI1235
aa(lp2603
S'MRN1313_VMF_1_DTI_desikan.graphml'
p2604
aI1109
aa(lp2605
S'MRN1313_VP2_1_DTI_desikan.graphml'
p2606
aI884
aa(lp2607
S'MRN1313_VQH_1_DTI_desikan.graphml'
p2608
aI976
aa(lp2609
S'MRN1313_VR1_1_DTI_desikan.graphml'
p2610
aI881
aa(lp2611
S'MRN1313_VRB_1_DTI_desikan.graphml'
p2612
aI1045
aa(lp2613
S'MRN1313_VTB_1_DTI_desikan.graphml'
p2614
aI825
aa(lp2615
S'MRN1313_VTR_1_DTI_desikan.graphml'
p2616
aI891
aa(lp2617
S'MRN1313_VYL_1_DTI_desikan.graphml'
p2618
aI722
aa(lp2619
S'MRN1313_VYS_1_DTI_desikan.graphml'
p2620
aI922
aa(lp2621
S'MRN1313_VYX_1_DTI_desikan.graphml'
p2622
aI1003
aa(lp2623
S'MRN1313_VZA_1_DTI_desikan.graphml'
p2624
aI967
aa(lp2625
S'MRN1313_VZC_1_DTI_desikan.graphml'
p2626
aI1104
aa(lp2627
S'MRN1313_VZY_1_DTI_desikan.graphml'
p2628
aI1002
aa(lp2629
S'MRN1313_W23_1_DTI_desikan.graphml'
p2630
aI1205
aa(lp2631
S'MRN1313_W2M_1_DTI_desikan.graphml'
p2632
aI903
aa(lp2633
S'MRN1313_W3W_1_DTI_desikan.graphml'
p2634
aI926
aa(lp2635
S'MRN1313_W43_1_DTI_desikan.graphml'
p2636
aI1054
aa(lp2637
S'MRN1313_W49_1_DTI_desikan.graphml'
p2638
aI904
aa(lp2639
S'MRN1313_W4D_1_DTI_desikan.graphml'
p2640
aI1125
aa(lp2641
S'MRN1313_W69_1_DTI_desikan.graphml'
p2642
aI1029
aa(lp2643
S'MRN1313_W6C_1_DTI_desikan.graphml'
p2644
aI1037
aa(lp2645
S'MRN1313_W74_1_DTI_desikan.graphml'
p2646
aI829
aa(lp2647
S'MRN1313_W7G_1_DTI_desikan.graphml'
p2648
aI1144
aa(lp2649
S'MRN1313_W8P_1_DTI_desikan.graphml'
p2650
aI1020
aa(lp2651
S'MRN1313_W99_1_DTI_desikan.graphml'
p2652
aI1059
aa(lp2653
S'MRN1313_W9H_1_DTI_desikan.graphml'
p2654
aI1096
aa(lp2655
S'MRN1313_W9P_1_DTI_desikan.graphml'
p2656
aI1237
aa(lp2657
S'MRN1313_WA7_1_DTI_desikan.graphml'
p2658
aI1101
aa(lp2659
S'MRN1313_WAA_1_DTI_desikan.graphml'
p2660
aI947
aa(lp2661
S'MRN1313_WAH_1_DTI_desikan.graphml'
p2662
aI952
aa(lp2663
S'MRN1313_WBB_1_DTI_desikan.graphml'
p2664
aI912
aa(lp2665
S'MRN1313_WBV_1_DTI_desikan.graphml'
p2666
aI1204
aa(lp2667
S'MRN1313_WCE_1_DTI_desikan.graphml'
p2668
aI1079
aa(lp2669
S'MRN1313_WDN_1_DTI_desikan.graphml'
p2670
aI986
aa(lp2671
S'MRN1313_WDZ_1_DTI_desikan.graphml'
p2672
aI903
aa(lp2673
S'MRN1313_WEQ_1_DTI_desikan.graphml'
p2674
aI988
aa(lp2675
S'MRN1313_WFJ_1_DTI_desikan.graphml'
p2676
aI726
aa(lp2677
S'MRN1313_WHE_1_DTI_desikan.graphml'
p2678
aI1156
aa(lp2679
S'MRN1313_WK1_1_DTI_desikan.graphml'
p2680
aI888
aa(lp2681
S'MRN1313_WKB_1_DTI_desikan.graphml'
p2682
aI897
aa(lp2683
S'MRN1313_WLQ_1_DTI_desikan.graphml'
p2684
aI969
aa(lp2685
S'MRN1313_WMH_1_DTI_desikan.graphml'
p2686
aI907
aa(lp2687
S'MRN1313_WNT_1_DTI_desikan.graphml'
p2688
aI914
aa(lp2689
S'MRN1313_WP5_1_DTI_desikan.graphml'
p2690
aI908
aa(lp2691
S'MRN1313_WPH_1_DTI_desikan.graphml'
p2692
aI996
aa(lp2693
S'MRN1313_WPL_1_DTI_desikan.graphml'
p2694
aI1015
aa(lp2695
S'MRN1313_WQJ_1_DTI_desikan.graphml'
p2696
aI887
aa(lp2697
S'MRN1313_WR6_1_DTI_desikan.graphml'
p2698
aI955
aa(lp2699
S'MRN1313_WRN_1_DTI_desikan.graphml'
p2700
aI989
aa(lp2701
S'MRN1313_WRZ_1_DTI_desikan.graphml'
p2702
aI969
aa(lp2703
S'MRN1313_WSV_1_DTI_desikan.graphml'
p2704
aI958
aa(lp2705
S'MRN1313_WT3_1_DTI_desikan.graphml'
p2706
aI661
aa(lp2707
S'MRN1313_WTG_1_DTI_desikan.graphml'
p2708
aI860
aa(lp2709
S'MRN1313_WVC_1_DTI_desikan.graphml'
p2710
aI846
aa(lp2711
S'MRN1313_WVK_1_DTI_desikan.graphml'
p2712
aI1027
aa(lp2713
S'MRN1313_WVT_1_DTI_desikan.graphml'
p2714
aI1018
aa(lp2715
S'MRN1313_WVV_1_DTI_desikan.graphml'
p2716
aI1010
aa(lp2717
S'MRN1313_WW7_1_DTI_desikan.graphml'
p2718
aI821
aa(lp2719
S'MRN1313_WWM_1_DTI_desikan.graphml'
p2720
aI1014
aa(lp2721
S'MRN1313_WX8_1_DTI_desikan.graphml'
p2722
aI974
aa(lp2723
S'MRN1313_WZ4_1_DTI_desikan.graphml'
p2724
aI906
aa(lp2725
S'MRN1313_X14_1_DTI_desikan.graphml'
p2726
aI1146
aa(lp2727
S'MRN1313_X17_1_DTI_desikan.graphml'
p2728
aI1016
aa(lp2729
S'MRN1313_X19_1_DTI_desikan.graphml'
p2730
aI871
aa(lp2731
S'MRN1313_X1N_1_DTI_desikan.graphml'
p2732
aI727
aa(lp2733
S'MRN1313_X24_1_DTI_desikan.graphml'
p2734
aI1161
aa(lp2735
S'MRN1313_X2Y_1_DTI_desikan.graphml'
p2736
aI997
aa(lp2737
S'MRN1313_X53_1_DTI_desikan.graphml'
p2738
aI949
aa(lp2739
S'MRN1313_X75_1_DTI_desikan.graphml'
p2740
aI1107
aa(lp2741
S'MRN1313_X7Z_1_DTI_desikan.graphml'
p2742
aI1034
aa(lp2743
S'MRN1313_X89_1_DTI_desikan.graphml'
p2744
aI985
aa(lp2745
S'MRN1313_X9V_1_DTI_desikan.graphml'
p2746
aI943
aa(lp2747
S'MRN1313_XAK_1_DTI_desikan.graphml'
p2748
aI994
aa(lp2749
S'MRN1313_XAL_1_DTI_desikan.graphml'
p2750
aI905
aa(lp2751
S'MRN1313_XAM_1_DTI_desikan.graphml'
p2752
aI1014
aa(lp2753
S'MRN1313_XAV_1_DTI_desikan.graphml'
p2754
aI991
aa(lp2755
S'MRN1313_XB7_1_DTI_desikan.graphml'
p2756
aI1063
aa(lp2757
S'MRN1313_XBB_1_DTI_desikan.graphml'
p2758
aI1033
aa(lp2759
S'MRN1313_XCY_1_DTI_desikan.graphml'
p2760
aI791
aa(lp2761
S'MRN1313_XDV_1_DTI_desikan.graphml'
p2762
aI666
aa(lp2763
S'MRN1313_XEF_1_DTI_desikan.graphml'
p2764
aI792
aa(lp2765
S'MRN1313_XEJ_1_DTI_desikan.graphml'
p2766
aI811
aa(lp2767
S'MRN1313_XFQ_1_DTI_desikan.graphml'
p2768
aI813
aa(lp2769
S'MRN1313_XGS_1_DTI_desikan.graphml'
p2770
aI929
aa(lp2771
S'MRN1313_XK3_1_DTI_desikan.graphml'
p2772
aI1133
aa(lp2773
S'MRN1313_XKF_1_DTI_desikan.graphml'
p2774
aI950
aa(lp2775
S'MRN1313_XL1_1_DTI_desikan.graphml'
p2776
aI1118
aa(lp2777
S'MRN1313_XML_1_DTI_desikan.graphml'
p2778
aI911
aa(lp2779
S'MRN1313_XNT_1_DTI_desikan.graphml'
p2780
aI721
aa(lp2781
S'MRN1313_XR5_1_DTI_desikan.graphml'
p2782
aI999
aa(lp2783
S'MRN1313_XRW_1_DTI_desikan.graphml'
p2784
aI767
aa(lp2785
S'MRN1313_XSW_1_DTI_desikan.graphml'
p2786
aI791
aa(lp2787
S'MRN1313_XTJ_1_DTI_desikan.graphml'
p2788
aI749
aa(lp2789
S'MRN1313_XWS_1_DTI_desikan.graphml'
p2790
aI934
aa(lp2791
S'MRN1313_XXL_1_DTI_desikan.graphml'
p2792
aI900
aa(lp2793
S'MRN1313_XXM_1_DTI_desikan.graphml'
p2794
aI892
aa(lp2795
S'MRN1313_XYH_1_DTI_desikan.graphml'
p2796
aI1024
aa(lp2797
S'MRN1313_XZ9_1_DTI_desikan.graphml'
p2798
aI1083
aa(lp2799
S'MRN1313_XZH_1_DTI_desikan.graphml'
p2800
aI1054
aa(lp2801
S'MRN1313_XZJ_1_DTI_desikan.graphml'
p2802
aI1106
aa(lp2803
S'MRN1313_XZX_1_DTI_desikan.graphml'
p2804
aI1154
aa(lp2805
S'MRN1313_Y1E_1_DTI_desikan.graphml'
p2806
aI960
aa(lp2807
S'MRN1313_Y26_1_DTI_desikan.graphml'
p2808
aI928
aa(lp2809
S'MRN1313_Y2T_1_DTI_desikan.graphml'
p2810
aI1002
aa(lp2811
S'MRN1313_Y3J_1_DTI_desikan.graphml'
p2812
aI1002
aa(lp2813
S'MRN1313_Y4P_1_DTI_desikan.graphml'
p2814
aI976
aa(lp2815
S'MRN1313_Y4S_1_DTI_desikan.graphml'
p2816
aI913
aa(lp2817
S'MRN1313_Y4Y_1_DTI_desikan.graphml'
p2818
aI843
aa(lp2819
S'MRN1313_Y5J_1_DTI_desikan.graphml'
p2820
aI1201
aa(lp2821
S'MRN1313_Y8G_1_DTI_desikan.graphml'
p2822
aI1070
aa(lp2823
S'MRN1313_Y95_1_DTI_desikan.graphml'
p2824
aI1246
aa(lp2825
S'MRN1313_Y9R_1_DTI_desikan.graphml'
p2826
aI1206
aa(lp2827
S'MRN1313_YB6_1_DTI_desikan.graphml'
p2828
aI1010
aa(lp2829
S'MRN1313_YBJ_1_DTI_desikan.graphml'
p2830
aI1015
aa(lp2831
S'MRN1313_YD2_1_DTI_desikan.graphml'
p2832
aI988
aa(lp2833
S'MRN1313_YD7_1_DTI_desikan.graphml'
p2834
aI984
aa(lp2835
S'MRN1313_YF5_1_DTI_desikan.graphml'
p2836
aI818
aa(lp2837
S'MRN1313_YFB_1_DTI_desikan.graphml'
p2838
aI978
aa(lp2839
S'MRN1313_YFJ_1_DTI_desikan.graphml'
p2840
aI1056
aa(lp2841
S'MRN1313_YFK_1_DTI_desikan.graphml'
p2842
aI907
aa(lp2843
S'MRN1313_YFR_1_DTI_desikan.graphml'
p2844
aI978
aa(lp2845
S'MRN1313_YG5_1_DTI_desikan.graphml'
p2846
aI915
aa(lp2847
S'MRN1313_YGC_1_DTI_desikan.graphml'
p2848
aI1094
aa(lp2849
S'MRN1313_YGK_1_DTI_desikan.graphml'
p2850
aI888
aa(lp2851
S'MRN1313_YGT_1_DTI_desikan.graphml'
p2852
aI1129
aa(lp2853
S'MRN1313_YHW_1_DTI_desikan.graphml'
p2854
aI1036
aa(lp2855
S'MRN1313_YJ2_1_DTI_desikan.graphml'
p2856
aI956
aa(lp2857
S'MRN1313_YJM_1_DTI_desikan.graphml'
p2858
aI626
aa(lp2859
S'MRN1313_YJX_1_DTI_desikan.graphml'
p2860
aI936
aa(lp2861
S'MRN1313_YT7_1_DTI_desikan.graphml'
p2862
aI924
aa(lp2863
S'MRN1313_YTT_1_DTI_desikan.graphml'
p2864
aI879
aa(lp2865
S'MRN1313_YTZ_1_DTI_desikan.graphml'
p2866
aI947
aa(lp2867
S'MRN1313_YV2_1_DTI_desikan.graphml'
p2868
aI973
aa(lp2869
S'MRN1313_YVA_1_DTI_desikan.graphml'
p2870
aI941
aa(lp2871
S'MRN1313_YW9_1_DTI_desikan.graphml'
p2872
aI886
aa(lp2873
S'MRN1313_YXH_1_DTI_desikan.graphml'
p2874
aI850
aa(lp2875
S'MRN1313_YY7_1_DTI_desikan.graphml'
p2876
aI929
aa(lp2877
S'MRN1313_YZD_1_DTI_desikan.graphml'
p2878
aI908
aa(lp2879
S'MRN1313_YZG_1_DTI_desikan.graphml'
p2880
aI849
aa(lp2881
S'MRN1313_Z1D_1_DTI_desikan.graphml'
p2882
aI894
aa(lp2883
S'MRN1313_Z1Q_1_DTI_desikan.graphml'
p2884
aI912
aa(lp2885
S'MRN1313_Z21_1_DTI_desikan.graphml'
p2886
aI946
aa(lp2887
S'MRN1313_Z2K_1_DTI_desikan.graphml'
p2888
aI793
aa(lp2889
S'MRN1313_Z2S_1_DTI_desikan.graphml'
p2890
aI1004
aa(lp2891
S'MRN1313_Z3N_1_DTI_desikan.graphml'
p2892
aI955
aa(lp2893
S'MRN1313_Z67_1_DTI_desikan.graphml'
p2894
aI864
aa(lp2895
S'MRN1313_ZB8_1_DTI_desikan.graphml'
p2896
aI918
aa(lp2897
S'MRN1313_ZCZ_1_DTI_desikan.graphml'
p2898
aI929
aa(lp2899
S'MRN1313_ZD8_1_DTI_desikan.graphml'
p2900
aI872
aa(lp2901
S'MRN1313_ZER_1_DTI_desikan.graphml'
p2902
aI893
aa(lp2903
S'MRN1313_ZFG_1_DTI_desikan.graphml'
p2904
aI886
aa(lp2905
S'MRN1313_ZFR_1_DTI_desikan.graphml'
p2906
aI1093
aa(lp2907
S'MRN1313_ZGA_1_DTI_desikan.graphml'
p2908
aI902
aa(lp2909
S'MRN1313_ZHM_1_DTI_desikan.graphml'
p2910
aI989
aa(lp2911
S'MRN1313_ZHS_1_DTI_desikan.graphml'
p2912
aI902
aa(lp2913
S'MRN1313_ZJL_1_DTI_desikan.graphml'
p2914
aI955
aa(lp2915
S'MRN1313_ZKB_1_DTI_desikan.graphml'
p2916
aI1249
aa(lp2917
S'MRN1313_ZKF_1_DTI_desikan.graphml'
p2918
aI972
aa(lp2919
S'MRN1313_ZL8_1_DTI_desikan.graphml'
p2920
aI996
aa(lp2921
S'MRN1313_ZPP_1_DTI_desikan.graphml'
p2922
aI910
aa(lp2923
S'MRN1313_ZS6_1_DTI_desikan.graphml'
p2924
aI1051
aa(lp2925
S'MRN1313_ZSX_1_DTI_desikan.graphml'
p2926
aI893
aa(lp2927
S'MRN1313_ZTS_1_DTI_desikan.graphml'
p2928
aI962
aa(lp2929
S'MRN1313_ZVK_1_DTI_desikan.graphml'
p2930
aI941
aa(lp2931
S'MRN1313_ZW3_1_DTI_desikan.graphml'
p2932
aI983
aa(lp2933
S'MRN1313_ZW5_1_DTI_desikan.graphml'
p2934
aI909
aa(lp2935
S'MRN1313_ZZD_1_DTI_desikan.graphml'
p2936
aI955
aa(lp2937
S'MRN1313_ZZN_1_DTI_desikan.graphml'
p2938
aI801
aatp2939
Rp2940
aa(lp2941
S'SWU4'
p2942
ag2
((lp2943
(lp2944
S'SWU4_0025629_1_desikan_sg.graphml'
p2945
aI1653
aa(lp2946
S'SWU4_0025629_2_desikan_sg.graphml'
p2947
aI1755
aa(lp2948
S'SWU4_0025630_1_desikan_sg.graphml'
p2949
aI1573
aa(lp2950
S'SWU4_0025630_2_desikan_sg.graphml'
p2951
aI1544
aa(lp2952
S'SWU4_0025631_1_desikan_sg.graphml'
p2953
aI1421
aa(lp2954
S'SWU4_0025631_2_desikan_sg.graphml'
p2955
aI1460
aa(lp2956
S'SWU4_0025632_1_desikan_sg.graphml'
p2957
aI1267
aa(lp2958
S'SWU4_0025632_2_desikan_sg.graphml'
p2959
aI1408
aa(lp2960
S'SWU4_0025633_1_desikan_sg.graphml'
p2961
aI1507
aa(lp2962
S'SWU4_0025633_2_desikan_sg.graphml'
p2963
aI1408
aa(lp2964
S'SWU4_0025634_1_desikan_sg.graphml'
p2965
aI693
aa(lp2966
S'SWU4_0025634_2_desikan_sg.graphml'
p2967
aI1693
aa(lp2968
S'SWU4_0025635_1_desikan_sg.graphml'
p2969
aI1272
aa(lp2970
S'SWU4_0025635_2_desikan_sg.graphml'
p2971
aI1509
aa(lp2972
S'SWU4_0025636_1_desikan_sg.graphml'
p2973
aI1534
aa(lp2974
S'SWU4_0025636_2_desikan_sg.graphml'
p2975
aI1487
aa(lp2976
S'SWU4_0025637_1_desikan_sg.graphml'
p2977
aI1253
aa(lp2978
S'SWU4_0025637_2_desikan_sg.graphml'
p2979
aI1463
aa(lp2980
S'SWU4_0025638_1_desikan_sg.graphml'
p2981
aI1301
aa(lp2982
S'SWU4_0025638_2_desikan_sg.graphml'
p2983
aI652
aa(lp2984
S'SWU4_0025639_1_desikan_sg.graphml'
p2985
aI1744
aa(lp2986
S'SWU4_0025639_2_desikan_sg.graphml'
p2987
aI1994
aa(lp2988
S'SWU4_0025640_1_desikan_sg.graphml'
p2989
aI1308
aa(lp2990
S'SWU4_0025640_2_desikan_sg.graphml'
p2991
aI1281
aa(lp2992
S'SWU4_0025641_1_desikan_sg.graphml'
p2993
aI1304
aa(lp2994
S'SWU4_0025641_2_desikan_sg.graphml'
p2995
aI1464
aa(lp2996
S'SWU4_0025642_1_desikan_sg.graphml'
p2997
aI1512
aa(lp2998
S'SWU4_0025642_2_desikan_sg.graphml'
p2999
aI1530
aa(lp3000
S'SWU4_0025643_1_desikan_sg.graphml'
p3001
aI1423
aa(lp3002
S'SWU4_0025643_2_desikan_sg.graphml'
p3003
aI1337
aa(lp3004
S'SWU4_0025644_1_desikan_sg.graphml'
p3005
aI1318
aa(lp3006
S'SWU4_0025644_2_desikan_sg.graphml'
p3007
aI1413
aa(lp3008
S'SWU4_0025645_1_desikan_sg.graphml'
p3009
aI1453
aa(lp3010
S'SWU4_0025645_2_desikan_sg.graphml'
p3011
aI1356
aa(lp3012
S'SWU4_0025646_1_desikan_sg.graphml'
p3013
aI1575
aa(lp3014
S'SWU4_0025646_2_desikan_sg.graphml'
p3015
aI1594
aa(lp3016
S'SWU4_0025647_1_desikan_sg.graphml'
p3017
aI1629
aa(lp3018
S'SWU4_0025647_2_desikan_sg.graphml'
p3019
aI1354
aa(lp3020
S'SWU4_0025648_1_desikan_sg.graphml'
p3021
aI1519
aa(lp3022
S'SWU4_0025648_2_desikan_sg.graphml'
p3023
aI1556
aa(lp3024
S'SWU4_0025649_1_desikan_sg.graphml'
p3025
aI1275
aa(lp3026
S'SWU4_0025649_2_desikan_sg.graphml'
p3027
aI1348
aa(lp3028
S'SWU4_0025650_1_desikan_sg.graphml'
p3029
aI1334
aa(lp3030
S'SWU4_0025650_2_desikan_sg.graphml'
p3031
aI1542
aa(lp3032
S'SWU4_0025651_1_desikan_sg.graphml'
p3033
aI1515
aa(lp3034
S'SWU4_0025651_2_desikan_sg.graphml'
p3035
aI1699
aa(lp3036
S'SWU4_0025652_1_desikan_sg.graphml'
p3037
aI1496
aa(lp3038
S'SWU4_0025652_2_desikan_sg.graphml'
p3039
aI1433
aa(lp3040
S'SWU4_0025653_1_desikan_sg.graphml'
p3041
aI1155
aa(lp3042
S'SWU4_0025653_2_desikan_sg.graphml'
p3043
aI1089
aa(lp3044
S'SWU4_0025655_1_desikan_sg.graphml'
p3045
aI1660
aa(lp3046
S'SWU4_0025655_2_desikan_sg.graphml'
p3047
aI1457
aa(lp3048
S'SWU4_0025656_1_desikan_sg.graphml'
p3049
aI1515
aa(lp3050
S'SWU4_0025656_2_desikan_sg.graphml'
p3051
aI1370
aa(lp3052
S'SWU4_0025657_1_desikan_sg.graphml'
p3053
aI1557
aa(lp3054
S'SWU4_0025657_2_desikan_sg.graphml'
p3055
aI1431
aa(lp3056
S'SWU4_0025658_1_desikan_sg.graphml'
p3057
aI1586
aa(lp3058
S'SWU4_0025658_2_desikan_sg.graphml'
p3059
aI1345
aa(lp3060
S'SWU4_0025659_1_desikan_sg.graphml'
p3061
aI1527
aa(lp3062
S'SWU4_0025659_2_desikan_sg.graphml'
p3063
aI1414
aa(lp3064
S'SWU4_0025660_1_desikan_sg.graphml'
p3065
aI1434
aa(lp3066
S'SWU4_0025660_2_desikan_sg.graphml'
p3067
aI1361
aa(lp3068
S'SWU4_0025661_1_desikan_sg.graphml'
p3069
aI1448
aa(lp3070
S'SWU4_0025661_2_desikan_sg.graphml'
p3071
aI1558
aa(lp3072
S'SWU4_0025662_1_desikan_sg.graphml'
p3073
aI1658
aa(lp3074
S'SWU4_0025662_2_desikan_sg.graphml'
p3075
aI1595
aa(lp3076
S'SWU4_0025663_1_desikan_sg.graphml'
p3077
aI1661
aa(lp3078
S'SWU4_0025663_2_desikan_sg.graphml'
p3079
aI1651
aa(lp3080
S'SWU4_0025664_1_desikan_sg.graphml'
p3081
aI1569
aa(lp3082
S'SWU4_0025664_2_desikan_sg.graphml'
p3083
aI1566
aa(lp3084
S'SWU4_0025665_1_desikan_sg.graphml'
p3085
aI1416
aa(lp3086
S'SWU4_0025665_2_desikan_sg.graphml'
p3087
aI1412
aa(lp3088
S'SWU4_0025666_1_desikan_sg.graphml'
p3089
aI1223
aa(lp3090
S'SWU4_0025666_2_desikan_sg.graphml'
p3091
aI742
aa(lp3092
S'SWU4_0025667_1_desikan_sg.graphml'
p3093
aI1461
aa(lp3094
S'SWU4_0025667_2_desikan_sg.graphml'
p3095
aI1497
aa(lp3096
S'SWU4_0025668_1_desikan_sg.graphml'
p3097
aI1293
aa(lp3098
S'SWU4_0025668_2_desikan_sg.graphml'
p3099
aI1436
aa(lp3100
S'SWU4_0025669_1_desikan_sg.graphml'
p3101
aI1375
aa(lp3102
S'SWU4_0025669_2_desikan_sg.graphml'
p3103
aI1352
aa(lp3104
S'SWU4_0025670_1_desikan_sg.graphml'
p3105
aI1479
aa(lp3106
S'SWU4_0025670_2_desikan_sg.graphml'
p3107
aI1557
aa(lp3108
S'SWU4_0025671_1_desikan_sg.graphml'
p3109
aI1639
aa(lp3110
S'SWU4_0025671_2_desikan_sg.graphml'
p3111
aI1594
aa(lp3112
S'SWU4_0025672_1_desikan_sg.graphml'
p3113
aI1543
aa(lp3114
S'SWU4_0025672_2_desikan_sg.graphml'
p3115
aI1557
aa(lp3116
S'SWU4_0025673_1_desikan_sg.graphml'
p3117
aI1520
aa(lp3118
S'SWU4_0025673_2_desikan_sg.graphml'
p3119
aI1558
aa(lp3120
S'SWU4_0025674_1_desikan_sg.graphml'
p3121
aI1437
aa(lp3122
S'SWU4_0025674_2_desikan_sg.graphml'
p3123
aI720
aa(lp3124
S'SWU4_0025675_1_desikan_sg.graphml'
p3125
aI1535
aa(lp3126
S'SWU4_0025675_2_desikan_sg.graphml'
p3127
aI1804
aa(lp3128
S'SWU4_0025676_1_desikan_sg.graphml'
p3129
aI1444
aa(lp3130
S'SWU4_0025676_2_desikan_sg.graphml'
p3131
aI1403
aa(lp3132
S'SWU4_0025677_1_desikan_sg.graphml'
p3133
aI1481
aa(lp3134
S'SWU4_0025677_2_desikan_sg.graphml'
p3135
aI660
aa(lp3136
S'SWU4_0025678_1_desikan_sg.graphml'
p3137
aI1479
aa(lp3138
S'SWU4_0025678_2_desikan_sg.graphml'
p3139
aI1481
aa(lp3140
S'SWU4_0025679_1_desikan_sg.graphml'
p3141
aI1519
aa(lp3142
S'SWU4_0025679_2_desikan_sg.graphml'
p3143
aI1612
aa(lp3144
S'SWU4_0025680_1_desikan_sg.graphml'
p3145
aI1315
aa(lp3146
S'SWU4_0025680_2_desikan_sg.graphml'
p3147
aI1412
aa(lp3148
S'SWU4_0025681_1_desikan_sg.graphml'
p3149
aI1441
aa(lp3150
S'SWU4_0025681_2_desikan_sg.graphml'
p3151
aI636
aa(lp3152
S'SWU4_0025682_1_desikan_sg.graphml'
p3153
aI1534
aa(lp3154
S'SWU4_0025682_2_desikan_sg.graphml'
p3155
aI1594
aa(lp3156
S'SWU4_0025683_1_desikan_sg.graphml'
p3157
aI1524
aa(lp3158
S'SWU4_0025683_2_desikan_sg.graphml'
p3159
aI1696
aa(lp3160
S'SWU4_0025684_1_desikan_sg.graphml'
p3161
aI1560
aa(lp3162
S'SWU4_0025684_2_desikan_sg.graphml'
p3163
aI1553
aa(lp3164
S'SWU4_0025685_1_desikan_sg.graphml'
p3165
aI1745
aa(lp3166
S'SWU4_0025685_2_desikan_sg.graphml'
p3167
aI1453
aa(lp3168
S'SWU4_0025686_1_desikan_sg.graphml'
p3169
aI1459
aa(lp3170
S'SWU4_0025686_2_desikan_sg.graphml'
p3171
aI1329
aa(lp3172
S'SWU4_0025687_1_desikan_sg.graphml'
p3173
aI1408
aa(lp3174
S'SWU4_0025687_2_desikan_sg.graphml'
p3175
aI1735
aa(lp3176
S'SWU4_0025688_1_desikan_sg.graphml'
p3177
aI1838
aa(lp3178
S'SWU4_0025688_2_desikan_sg.graphml'
p3179
aI1888
aa(lp3180
S'SWU4_0025689_1_desikan_sg.graphml'
p3181
aI1493
aa(lp3182
S'SWU4_0025689_2_desikan_sg.graphml'
p3183
aI648
aa(lp3184
S'SWU4_0025690_1_desikan_sg.graphml'
p3185
aI1524
aa(lp3186
S'SWU4_0025690_2_desikan_sg.graphml'
p3187
aI1467
aa(lp3188
S'SWU4_0025691_1_desikan_sg.graphml'
p3189
aI668
aa(lp3190
S'SWU4_0025691_2_desikan_sg.graphml'
p3191
aI1526
aa(lp3192
S'SWU4_0025692_1_desikan_sg.graphml'
p3193
aI1397
aa(lp3194
S'SWU4_0025692_2_desikan_sg.graphml'
p3195
aI1364
aa(lp3196
S'SWU4_0025693_1_desikan_sg.graphml'
p3197
aI1332
aa(lp3198
S'SWU4_0025693_2_desikan_sg.graphml'
p3199
aI1560
aa(lp3200
S'SWU4_0025694_1_desikan_sg.graphml'
p3201
aI1618
aa(lp3202
S'SWU4_0025694_2_desikan_sg.graphml'
p3203
aI1461
aa(lp3204
S'SWU4_0025695_1_desikan_sg.graphml'
p3205
aI1502
aa(lp3206
S'SWU4_0025695_2_desikan_sg.graphml'
p3207
aI1594
aa(lp3208
S'SWU4_0025696_1_desikan_sg.graphml'
p3209
aI1434
aa(lp3210
S'SWU4_0025696_2_desikan_sg.graphml'
p3211
aI1433
aa(lp3212
S'SWU4_0025697_1_desikan_sg.graphml'
p3213
aI1355
aa(lp3214
S'SWU4_0025697_2_desikan_sg.graphml'
p3215
aI1331
aa(lp3216
S'SWU4_0025698_1_desikan_sg.graphml'
p3217
aI1398
aa(lp3218
S'SWU4_0025698_2_desikan_sg.graphml'
p3219
aI1489
aa(lp3220
S'SWU4_0025699_1_desikan_sg.graphml'
p3221
aI1532
aa(lp3222
S'SWU4_0025699_2_desikan_sg.graphml'
p3223
aI1619
aa(lp3224
S'SWU4_0025700_1_desikan_sg.graphml'
p3225
aI1444
aa(lp3226
S'SWU4_0025700_2_desikan_sg.graphml'
p3227
aI1586
aa(lp3228
S'SWU4_0025701_1_desikan_sg.graphml'
p3229
aI1525
aa(lp3230
S'SWU4_0025701_2_desikan_sg.graphml'
p3231
aI1521
aa(lp3232
S'SWU4_0025702_1_desikan_sg.graphml'
p3233
aI1615
aa(lp3234
S'SWU4_0025702_2_desikan_sg.graphml'
p3235
aI1697
aa(lp3236
S'SWU4_0025703_1_desikan_sg.graphml'
p3237
aI1359
aa(lp3238
S'SWU4_0025703_2_desikan_sg.graphml'
p3239
aI1485
aa(lp3240
S'SWU4_0025704_1_desikan_sg.graphml'
p3241
aI1485
aa(lp3242
S'SWU4_0025704_2_desikan_sg.graphml'
p3243
aI1557
aa(lp3244
S'SWU4_0025705_1_desikan_sg.graphml'
p3245
aI1533
aa(lp3246
S'SWU4_0025705_2_desikan_sg.graphml'
p3247
aI1640
aa(lp3248
S'SWU4_0025706_1_desikan_sg.graphml'
p3249
aI1542
aa(lp3250
S'SWU4_0025706_2_desikan_sg.graphml'
p3251
aI1533
aa(lp3252
S'SWU4_0025707_1_desikan_sg.graphml'
p3253
aI1535
aa(lp3254
S'SWU4_0025707_2_desikan_sg.graphml'
p3255
aI1501
aa(lp3256
S'SWU4_0025708_1_desikan_sg.graphml'
p3257
aI1560
aa(lp3258
S'SWU4_0025708_2_desikan_sg.graphml'
p3259
aI1364
aa(lp3260
S'SWU4_0025709_1_desikan_sg.graphml'
p3261
aI1446
aa(lp3262
S'SWU4_0025709_2_desikan_sg.graphml'
p3263
aI1321
aa(lp3264
S'SWU4_0025710_1_desikan_sg.graphml'
p3265
aI1472
aa(lp3266
S'SWU4_0025710_2_desikan_sg.graphml'
p3267
aI1535
aa(lp3268
S'SWU4_0025711_1_desikan_sg.graphml'
p3269
aI1333
aa(lp3270
S'SWU4_0025711_2_desikan_sg.graphml'
p3271
aI1507
aa(lp3272
S'SWU4_0025712_1_desikan_sg.graphml'
p3273
aI1459
aa(lp3274
S'SWU4_0025712_2_desikan_sg.graphml'
p3275
aI1486
aa(lp3276
S'SWU4_0025713_1_desikan_sg.graphml'
p3277
aI1764
aa(lp3278
S'SWU4_0025713_2_desikan_sg.graphml'
p3279
aI1660
aa(lp3280
S'SWU4_0025714_1_desikan_sg.graphml'
p3281
aI1282
aa(lp3282
S'SWU4_0025714_2_desikan_sg.graphml'
p3283
aI1415
aa(lp3284
S'SWU4_0025715_1_desikan_sg.graphml'
p3285
aI1632
aa(lp3286
S'SWU4_0025715_2_desikan_sg.graphml'
p3287
aI1423
aa(lp3288
S'SWU4_0025716_1_desikan_sg.graphml'
p3289
aI1531
aa(lp3290
S'SWU4_0025716_2_desikan_sg.graphml'
p3291
aI736
aa(lp3292
S'SWU4_0025717_1_desikan_sg.graphml'
p3293
aI1695
aa(lp3294
S'SWU4_0025717_2_desikan_sg.graphml'
p3295
aI1570
aa(lp3296
S'SWU4_0025718_1_desikan_sg.graphml'
p3297
aI1416
aa(lp3298
S'SWU4_0025718_2_desikan_sg.graphml'
p3299
aI1475
aa(lp3300
S'SWU4_0025719_1_desikan_sg.graphml'
p3301
aI1398
aa(lp3302
S'SWU4_0025719_2_desikan_sg.graphml'
p3303
aI1403
aa(lp3304
S'SWU4_0025720_1_desikan_sg.graphml'
p3305
aI1553
aa(lp3306
S'SWU4_0025720_2_desikan_sg.graphml'
p3307
aI1503
aa(lp3308
S'SWU4_0025721_1_desikan_sg.graphml'
p3309
aI1463
aa(lp3310
S'SWU4_0025721_2_desikan_sg.graphml'
p3311
aI1539
aa(lp3312
S'SWU4_0025722_1_desikan_sg.graphml'
p3313
aI1693
aa(lp3314
S'SWU4_0025722_2_desikan_sg.graphml'
p3315
aI1673
aa(lp3316
S'SWU4_0025723_1_desikan_sg.graphml'
p3317
aI1489
aa(lp3318
S'SWU4_0025723_2_desikan_sg.graphml'
p3319
aI625
aa(lp3320
S'SWU4_0025724_1_desikan_sg.graphml'
p3321
aI1490
aa(lp3322
S'SWU4_0025724_2_desikan_sg.graphml'
p3323
aI1424
aa(lp3324
S'SWU4_0025725_1_desikan_sg.graphml'
p3325
aI1479
aa(lp3326
S'SWU4_0025725_2_desikan_sg.graphml'
p3327
aI1538
aa(lp3328
S'SWU4_0025726_1_desikan_sg.graphml'
p3329
aI1362
aa(lp3330
S'SWU4_0025726_2_desikan_sg.graphml'
p3331
aI1425
aa(lp3332
S'SWU4_0025727_1_desikan_sg.graphml'
p3333
aI1375
aa(lp3334
S'SWU4_0025727_2_desikan_sg.graphml'
p3335
aI1523
aa(lp3336
S'SWU4_0025728_1_desikan_sg.graphml'
p3337
aI1502
aa(lp3338
S'SWU4_0025728_2_desikan_sg.graphml'
p3339
aI1403
aa(lp3340
S'SWU4_0025729_1_desikan_sg.graphml'
p3341
aI1584
aa(lp3342
S'SWU4_0025729_2_desikan_sg.graphml'
p3343
aI1611
aa(lp3344
S'SWU4_0025730_1_desikan_sg.graphml'
p3345
aI1571
aa(lp3346
S'SWU4_0025730_2_desikan_sg.graphml'
p3347
aI1703
aa(lp3348
S'SWU4_0025731_1_desikan_sg.graphml'
p3349
aI1381
aa(lp3350
S'SWU4_0025731_2_desikan_sg.graphml'
p3351
aI1240
aa(lp3352
S'SWU4_0025732_1_desikan_sg.graphml'
p3353
aI1472
aa(lp3354
S'SWU4_0025732_2_desikan_sg.graphml'
p3355
aI1543
aa(lp3356
S'SWU4_0025733_1_desikan_sg.graphml'
p3357
aI660
aa(lp3358
S'SWU4_0025733_2_desikan_sg.graphml'
p3359
aI660
aa(lp3360
S'SWU4_0025734_1_desikan_sg.graphml'
p3361
aI670
aa(lp3362
S'SWU4_0025734_2_desikan_sg.graphml'
p3363
aI1382
aa(lp3364
S'SWU4_0025735_1_desikan_sg.graphml'
p3365
aI1505
aa(lp3366
S'SWU4_0025735_2_desikan_sg.graphml'
p3367
aI1485
aa(lp3368
S'SWU4_0025736_1_desikan_sg.graphml'
p3369
aI1379
aa(lp3370
S'SWU4_0025736_2_desikan_sg.graphml'
p3371
aI1497
aa(lp3372
S'SWU4_0025737_1_desikan_sg.graphml'
p3373
aI1708
aa(lp3374
S'SWU4_0025737_2_desikan_sg.graphml'
p3375
aI1737
aa(lp3376
S'SWU4_0025738_1_desikan_sg.graphml'
p3377
aI1467
aa(lp3378
S'SWU4_0025738_2_desikan_sg.graphml'
p3379
aI1498
aa(lp3380
S'SWU4_0025739_1_desikan_sg.graphml'
p3381
aI1595
aa(lp3382
S'SWU4_0025739_2_desikan_sg.graphml'
p3383
aI708
aa(lp3384
S'SWU4_0025740_1_desikan_sg.graphml'
p3385
aI1508
aa(lp3386
S'SWU4_0025740_2_desikan_sg.graphml'
p3387
aI1399
aa(lp3388
S'SWU4_0025741_1_desikan_sg.graphml'
p3389
aI1349
aa(lp3390
S'SWU4_0025741_2_desikan_sg.graphml'
p3391
aI1465
aa(lp3392
S'SWU4_0025742_1_desikan_sg.graphml'
p3393
aI1625
aa(lp3394
S'SWU4_0025742_2_desikan_sg.graphml'
p3395
aI1611
aa(lp3396
S'SWU4_0025743_1_desikan_sg.graphml'
p3397
aI1743
aa(lp3398
S'SWU4_0025743_2_desikan_sg.graphml'
p3399
aI1811
aa(lp3400
S'SWU4_0025744_1_desikan_sg.graphml'
p3401
aI1507
aa(lp3402
S'SWU4_0025744_2_desikan_sg.graphml'
p3403
aI669
aa(lp3404
S'SWU4_0025745_1_desikan_sg.graphml'
p3405
aI1605
aa(lp3406
S'SWU4_0025745_2_desikan_sg.graphml'
p3407
aI1390
aa(lp3408
S'SWU4_0025746_1_desikan_sg.graphml'
p3409
aI1280
aa(lp3410
S'SWU4_0025746_2_desikan_sg.graphml'
p3411
aI1375
aa(lp3412
S'SWU4_0025747_1_desikan_sg.graphml'
p3413
aI1504
aa(lp3414
S'SWU4_0025747_2_desikan_sg.graphml'
p3415
aI1714
aa(lp3416
S'SWU4_0025748_1_desikan_sg.graphml'
p3417
aI1532
aa(lp3418
S'SWU4_0025748_2_desikan_sg.graphml'
p3419
aI1547
aa(lp3420
S'SWU4_0025749_1_desikan_sg.graphml'
p3421
aI1302
aa(lp3422
S'SWU4_0025749_2_desikan_sg.graphml'
p3423
aI1480
aa(lp3424
S'SWU4_0025750_1_desikan_sg.graphml'
p3425
aI1505
aa(lp3426
S'SWU4_0025750_2_desikan_sg.graphml'
p3427
aI1610
aa(lp3428
S'SWU4_0025751_1_desikan_sg.graphml'
p3429
aI1510
aa(lp3430
S'SWU4_0025751_2_desikan_sg.graphml'
p3431
aI1277
aa(lp3432
S'SWU4_0025752_1_desikan_sg.graphml'
p3433
aI1555
aa(lp3434
S'SWU4_0025752_2_desikan_sg.graphml'
p3435
aI1388
aa(lp3436
S'SWU4_0025753_1_desikan_sg.graphml'
p3437
aI1415
aa(lp3438
S'SWU4_0025753_2_desikan_sg.graphml'
p3439
aI1508
aa(lp3440
S'SWU4_0025756_1_desikan_sg.graphml'
p3441
aI1508
aa(lp3442
S'SWU4_0025756_2_desikan_sg.graphml'
p3443
aI1523
aa(lp3444
S'SWU4_0025757_1_desikan_sg.graphml'
p3445
aI1324
aa(lp3446
S'SWU4_0025757_2_desikan_sg.graphml'
p3447
aI711
aa(lp3448
S'SWU4_0025758_1_desikan_sg.graphml'
p3449
aI1327
aa(lp3450
S'SWU4_0025758_2_desikan_sg.graphml'
p3451
aI1204
aa(lp3452
S'SWU4_0025759_1_desikan_sg.graphml'
p3453
aI1537
aa(lp3454
S'SWU4_0025759_2_desikan_sg.graphml'
p3455
aI1789
aa(lp3456
S'SWU4_0025760_1_desikan_sg.graphml'
p3457
aI1464
aa(lp3458
S'SWU4_0025760_2_desikan_sg.graphml'
p3459
aI1429
aa(lp3460
S'SWU4_0025761_1_desikan_sg.graphml'
p3461
aI1546
aa(lp3462
S'SWU4_0025761_2_desikan_sg.graphml'
p3463
aI1372
aa(lp3464
S'SWU4_0025762_1_desikan_sg.graphml'
p3465
aI1664
aa(lp3466
S'SWU4_0025762_2_desikan_sg.graphml'
p3467
aI1541
aa(lp3468
S'SWU4_0025763_1_desikan_sg.graphml'
p3469
aI1388
aa(lp3470
S'SWU4_0025763_2_desikan_sg.graphml'
p3471
aI1301
aa(lp3472
S'SWU4_0025764_1_desikan_sg.graphml'
p3473
aI1337
aa(lp3474
S'SWU4_0025764_2_desikan_sg.graphml'
p3475
aI1410
aa(lp3476
S'SWU4_0025765_1_desikan_sg.graphml'
p3477
aI1452
aa(lp3478
S'SWU4_0025765_2_desikan_sg.graphml'
p3479
aI1355
aa(lp3480
S'SWU4_0025766_1_desikan_sg.graphml'
p3481
aI686
aa(lp3482
S'SWU4_0025766_2_desikan_sg.graphml'
p3483
aI1447
aa(lp3484
S'SWU4_0025767_1_desikan_sg.graphml'
p3485
aI1557
aa(lp3486
S'SWU4_0025767_2_desikan_sg.graphml'
p3487
aI1336
aa(lp3488
S'SWU4_0025768_1_desikan_sg.graphml'
p3489
aI1387
aa(lp3490
S'SWU4_0025768_2_desikan_sg.graphml'
p3491
aI1548
aa(lp3492
S'SWU4_0025769_1_desikan_sg.graphml'
p3493
aI670
aa(lp3494
S'SWU4_0025769_2_desikan_sg.graphml'
p3495
aI1371
aa(lp3496
S'SWU4_0025770_1_desikan_sg.graphml'
p3497
aI1749
aa(lp3498
S'SWU4_0025770_2_desikan_sg.graphml'
p3499
aI1731
aa(lp3500
S'SWU4_0025771_1_desikan_sg.graphml'
p3501
aI1564
aa(lp3502
S'SWU4_0025771_2_desikan_sg.graphml'
p3503
aI1486
aa(lp3504
S'SWU4_0025772_1_desikan_sg.graphml'
p3505
aI1541
aa(lp3506
S'SWU4_0025772_2_desikan_sg.graphml'
p3507
aI1604
aa(lp3508
S'SWU4_0025773_1_desikan_sg.graphml'
p3509
aI1653
aa(lp3510
S'SWU4_0025773_2_desikan_sg.graphml'
p3511
aI1608
aa(lp3512
S'SWU4_0025774_1_desikan_sg.graphml'
p3513
aI1496
aa(lp3514
S'SWU4_0025774_2_desikan_sg.graphml'
p3515
aI1456
aa(lp3516
S'SWU4_0025775_1_desikan_sg.graphml'
p3517
aI1349
aa(lp3518
S'SWU4_0025775_2_desikan_sg.graphml'
p3519
aI1554
aa(lp3520
S'SWU4_0025776_1_desikan_sg.graphml'
p3521
aI1633
aa(lp3522
S'SWU4_0025776_2_desikan_sg.graphml'
p3523
aI1100
aa(lp3524
S'SWU4_0025777_1_desikan_sg.graphml'
p3525
aI682
aa(lp3526
S'SWU4_0025777_2_desikan_sg.graphml'
p3527
aI1464
aa(lp3528
S'SWU4_0025778_1_desikan_sg.graphml'
p3529
aI1535
aa(lp3530
S'SWU4_0025778_2_desikan_sg.graphml'
p3531
aI1611
aa(lp3532
S'SWU4_0025779_1_desikan_sg.graphml'
p3533
aI1493
aa(lp3534
S'SWU4_0025779_2_desikan_sg.graphml'
p3535
aI680
aa(lp3536
S'SWU4_0025780_1_desikan_sg.graphml'
p3537
aI1502
aa(lp3538
S'SWU4_0025780_2_desikan_sg.graphml'
p3539
aI1307
aa(lp3540
S'SWU4_0025781_1_desikan_sg.graphml'
p3541
aI607
aa(lp3542
S'SWU4_0025781_2_desikan_sg.graphml'
p3543
aI614
aa(lp3544
S'SWU4_0025782_1_desikan_sg.graphml'
p3545
aI1342
aa(lp3546
S'SWU4_0025782_2_desikan_sg.graphml'
p3547
aI1530
aa(lp3548
S'SWU4_0025783_1_desikan_sg.graphml'
p3549
aI1410
aa(lp3550
S'SWU4_0025783_2_desikan_sg.graphml'
p3551
aI1725
aa(lp3552
S'SWU4_0025784_1_desikan_sg.graphml'
p3553
aI1396
aa(lp3554
S'SWU4_0025784_2_desikan_sg.graphml'
p3555
aI1433
aa(lp3556
S'SWU4_0025785_1_desikan_sg.graphml'
p3557
aI1315
aa(lp3558
S'SWU4_0025785_2_desikan_sg.graphml'
p3559
aI1318
aa(lp3560
S'SWU4_0025786_1_desikan_sg.graphml'
p3561
aI1551
aa(lp3562
S'SWU4_0025786_2_desikan_sg.graphml'
p3563
aI665
aa(lp3564
S'SWU4_0025787_1_desikan_sg.graphml'
p3565
aI1584
aa(lp3566
S'SWU4_0025787_2_desikan_sg.graphml'
p3567
aI1557
aa(lp3568
S'SWU4_0025788_1_desikan_sg.graphml'
p3569
aI1650
aa(lp3570
S'SWU4_0025788_2_desikan_sg.graphml'
p3571
aI1648
aa(lp3572
S'SWU4_0025794_1_desikan_sg.graphml'
p3573
aI1231
aa(lp3574
S'SWU4_0025794_2_desikan_sg.graphml'
p3575
aI1143
aa(lp3576
S'SWU4_0025795_1_desikan_sg.graphml'
p3577
aI1363
aa(lp3578
S'SWU4_0025795_2_desikan_sg.graphml'
p3579
aI668
aa(lp3580
S'SWU4_0025796_1_desikan_sg.graphml'
p3581
aI1566
aa(lp3582
S'SWU4_0025796_2_desikan_sg.graphml'
p3583
aI1372
aa(lp3584
S'SWU4_0025797_1_desikan_sg.graphml'
p3585
aI1605
aa(lp3586
S'SWU4_0025797_2_desikan_sg.graphml'
p3587
aI1418
aa(lp3588
S'SWU4_0025798_1_desikan_sg.graphml'
p3589
aI1490
aa(lp3590
S'SWU4_0025798_2_desikan_sg.graphml'
p3591
aI1736
aa(lp3592
S'SWU4_0025799_1_desikan_sg.graphml'
p3593
aI1299
aa(lp3594
S'SWU4_0025799_2_desikan_sg.graphml'
p3595
aI1316
aa(lp3596
S'SWU4_0025800_1_desikan_sg.graphml'
p3597
aI1591
aa(lp3598
S'SWU4_0025800_2_desikan_sg.graphml'
p3599
aI1547
aa(lp3600
S'SWU4_0025801_1_desikan_sg.graphml'
p3601
aI1506
aa(lp3602
S'SWU4_0025801_2_desikan_sg.graphml'
p3603
aI1563
aa(lp3604
S'SWU4_0025802_1_desikan_sg.graphml'
p3605
aI1682
aa(lp3606
S'SWU4_0025802_2_desikan_sg.graphml'
p3607
aI1685
aa(lp3608
S'SWU4_0025803_1_desikan_sg.graphml'
p3609
aI1417
aa(lp3610
S'SWU4_0025803_2_desikan_sg.graphml'
p3611
aI1469
aa(lp3612
S'SWU4_0025804_1_desikan_sg.graphml'
p3613
aI1672
aa(lp3614
S'SWU4_0025804_2_desikan_sg.graphml'
p3615
aI625
aa(lp3616
S'SWU4_0025805_1_desikan_sg.graphml'
p3617
aI1326
aa(lp3618
S'SWU4_0025805_2_desikan_sg.graphml'
p3619
aI1310
aa(lp3620
S'SWU4_0025806_1_desikan_sg.graphml'
p3621
aI1543
aa(lp3622
S'SWU4_0025806_2_desikan_sg.graphml'
p3623
aI637
aa(lp3624
S'SWU4_0025807_1_desikan_sg.graphml'
p3625
aI1385
aa(lp3626
S'SWU4_0025807_2_desikan_sg.graphml'
p3627
aI1512
aa(lp3628
S'SWU4_0025808_1_desikan_sg.graphml'
p3629
aI1553
aa(lp3630
S'SWU4_0025808_2_desikan_sg.graphml'
p3631
aI658
aa(lp3632
S'SWU4_0025809_1_desikan_sg.graphml'
p3633
aI1525
aa(lp3634
S'SWU4_0025809_2_desikan_sg.graphml'
p3635
aI1594
aa(lp3636
S'SWU4_0025810_1_desikan_sg.graphml'
p3637
aI1507
aa(lp3638
S'SWU4_0025810_2_desikan_sg.graphml'
p3639
aI1644
aa(lp3640
S'SWU4_0025811_1_desikan_sg.graphml'
p3641
aI1553
aa(lp3642
S'SWU4_0025811_2_desikan_sg.graphml'
p3643
aI680
aa(lp3644
S'SWU4_0025812_1_desikan_sg.graphml'
p3645
aI1458
aa(lp3646
S'SWU4_0025812_2_desikan_sg.graphml'
p3647
aI627
aa(lp3648
S'SWU4_0025813_1_desikan_sg.graphml'
p3649
aI1321
aa(lp3650
S'SWU4_0025813_2_desikan_sg.graphml'
p3651
aI1598
aa(lp3652
S'SWU4_0025814_1_desikan_sg.graphml'
p3653
aI1449
aa(lp3654
S'SWU4_0025814_2_desikan_sg.graphml'
p3655
aI1503
aa(lp3656
S'SWU4_0025815_1_desikan_sg.graphml'
p3657
aI1480
aa(lp3658
S'SWU4_0025815_2_desikan_sg.graphml'
p3659
aI1587
aa(lp3660
S'SWU4_0025816_1_desikan_sg.graphml'
p3661
aI1396
aa(lp3662
S'SWU4_0025816_2_desikan_sg.graphml'
p3663
aI1216
aa(lp3664
S'SWU4_0025817_1_desikan_sg.graphml'
p3665
aI1536
aa(lp3666
S'SWU4_0025817_2_desikan_sg.graphml'
p3667
aI1486
aa(lp3668
S'SWU4_0025818_1_desikan_sg.graphml'
p3669
aI1481
aa(lp3670
S'SWU4_0025818_2_desikan_sg.graphml'
p3671
aI1165
aa(lp3672
S'SWU4_0025819_1_desikan_sg.graphml'
p3673
aI1387
aa(lp3674
S'SWU4_0025819_2_desikan_sg.graphml'
p3675
aI1443
aa(lp3676
S'SWU4_0025820_1_desikan_sg.graphml'
p3677
aI687
aa(lp3678
S'SWU4_0025820_2_desikan_sg.graphml'
p3679
aI694
aa(lp3680
S'SWU4_0025821_1_desikan_sg.graphml'
p3681
aI1536
aa(lp3682
S'SWU4_0025821_2_desikan_sg.graphml'
p3683
aI657
aa(lp3684
S'SWU4_0025822_1_desikan_sg.graphml'
p3685
aI1368
aa(lp3686
S'SWU4_0025822_2_desikan_sg.graphml'
p3687
aI1372
aa(lp3688
S'SWU4_0025823_1_desikan_sg.graphml'
p3689
aI1716
aa(lp3690
S'SWU4_0025823_2_desikan_sg.graphml'
p3691
aI1716
aa(lp3692
S'SWU4_0025824_1_desikan_sg.graphml'
p3693
aI1250
aa(lp3694
S'SWU4_0025824_2_desikan_sg.graphml'
p3695
aI1473
aa(lp3696
S'SWU4_0025825_1_desikan_sg.graphml'
p3697
aI1322
aa(lp3698
S'SWU4_0025825_2_desikan_sg.graphml'
p3699
aI1430
aa(lp3700
S'SWU4_0025826_1_desikan_sg.graphml'
p3701
aI1314
aa(lp3702
S'SWU4_0025826_2_desikan_sg.graphml'
p3703
aI1456
aa(lp3704
S'SWU4_0025827_1_desikan_sg.graphml'
p3705
aI1404
aa(lp3706
S'SWU4_0025827_2_desikan_sg.graphml'
p3707
aI1429
aa(lp3708
S'SWU4_0025828_1_desikan_sg.graphml'
p3709
aI1731
aa(lp3710
S'SWU4_0025828_2_desikan_sg.graphml'
p3711
aI1457
aa(lp3712
S'SWU4_0025829_1_desikan_sg.graphml'
p3713
aI1440
aa(lp3714
S'SWU4_0025829_2_desikan_sg.graphml'
p3715
aI1475
aa(lp3716
S'SWU4_0025830_1_desikan_sg.graphml'
p3717
aI1589
aa(lp3718
S'SWU4_0025830_2_desikan_sg.graphml'
p3719
aI1587
aa(lp3720
S'SWU4_0025831_1_desikan_sg.graphml'
p3721
aI1518
aa(lp3722
S'SWU4_0025831_2_desikan_sg.graphml'
p3723
aI1325
aa(lp3724
S'SWU4_0025832_1_desikan_sg.graphml'
p3725
aI1737
aa(lp3726
S'SWU4_0025832_2_desikan_sg.graphml'
p3727
aI1535
aa(lp3728
S'SWU4_0025833_1_desikan_sg.graphml'
p3729
aI1469
aa(lp3730
S'SWU4_0025833_2_desikan_sg.graphml'
p3731
aI1357
aa(lp3732
S'SWU4_0025834_1_desikan_sg.graphml'
p3733
aI1476
aa(lp3734
S'SWU4_0025834_2_desikan_sg.graphml'
p3735
aI1665
aa(lp3736
S'SWU4_0025835_1_desikan_sg.graphml'
p3737
aI1576
aa(lp3738
S'SWU4_0025835_2_desikan_sg.graphml'
p3739
aI1583
aa(lp3740
S'SWU4_0025836_1_desikan_sg.graphml'
p3741
aI1403
aa(lp3742
S'SWU4_0025836_2_desikan_sg.graphml'
p3743
aI1457
aa(lp3744
S'SWU4_0025837_1_desikan_sg.graphml'
p3745
aI1561
aa(lp3746
S'SWU4_0025837_2_desikan_sg.graphml'
p3747
aI1571
aa(lp3748
S'SWU4_0025838_1_desikan_sg.graphml'
p3749
aI1370
aa(lp3750
S'SWU4_0025838_2_desikan_sg.graphml'
p3751
aI1360
aa(lp3752
S'SWU4_0025839_1_desikan_sg.graphml'
p3753
aI1534
aa(lp3754
S'SWU4_0025839_2_desikan_sg.graphml'
p3755
aI1506
aa(lp3756
S'SWU4_0025840_1_desikan_sg.graphml'
p3757
aI1450
aa(lp3758
S'SWU4_0025840_2_desikan_sg.graphml'
p3759
aI1373
aa(lp3760
S'SWU4_0025841_1_desikan_sg.graphml'
p3761
aI1311
aa(lp3762
S'SWU4_0025841_2_desikan_sg.graphml'
p3763
aI1453
aa(lp3764
S'SWU4_0025842_1_desikan_sg.graphml'
p3765
aI1604
aa(lp3766
S'SWU4_0025842_2_desikan_sg.graphml'
p3767
aI1433
aa(lp3768
S'SWU4_0025843_1_desikan_sg.graphml'
p3769
aI1643
aa(lp3770
S'SWU4_0025843_2_desikan_sg.graphml'
p3771
aI1553
aa(lp3772
S'SWU4_0025844_1_desikan_sg.graphml'
p3773
aI1786
aa(lp3774
S'SWU4_0025844_2_desikan_sg.graphml'
p3775
aI1621
aa(lp3776
S'SWU4_0025845_1_desikan_sg.graphml'
p3777
aI1438
aa(lp3778
S'SWU4_0025845_2_desikan_sg.graphml'
p3779
aI1543
aa(lp3780
S'SWU4_0025846_1_desikan_sg.graphml'
p3781
aI1473
aa(lp3782
S'SWU4_0025846_2_desikan_sg.graphml'
p3783
aI699
aa(lp3784
S'SWU4_0025847_1_desikan_sg.graphml'
p3785
aI1306
aa(lp3786
S'SWU4_0025847_2_desikan_sg.graphml'
p3787
aI1269
aa(lp3788
S'SWU4_0025848_1_desikan_sg.graphml'
p3789
aI1417
aa(lp3790
S'SWU4_0025848_2_desikan_sg.graphml'
p3791
aI1320
aa(lp3792
S'SWU4_0025849_1_desikan_sg.graphml'
p3793
aI1348
aa(lp3794
S'SWU4_0025849_2_desikan_sg.graphml'
p3795
aI655
aa(lp3796
S'SWU4_0025850_1_desikan_sg.graphml'
p3797
aI1175
aa(lp3798
S'SWU4_0025850_2_desikan_sg.graphml'
p3799
aI1414
aa(lp3800
S'SWU4_0025851_1_desikan_sg.graphml'
p3801
aI1412
aa(lp3802
S'SWU4_0025851_2_desikan_sg.graphml'
p3803
aI1370
aa(lp3804
S'SWU4_0025852_1_desikan_sg.graphml'
p3805
aI1599
aa(lp3806
S'SWU4_0025852_2_desikan_sg.graphml'
p3807
aI1708
aa(lp3808
S'SWU4_0025853_1_desikan_sg.graphml'
p3809
aI1619
aa(lp3810
S'SWU4_0025853_2_desikan_sg.graphml'
p3811
aI1490
aa(lp3812
S'SWU4_0025854_1_desikan_sg.graphml'
p3813
aI1712
aa(lp3814
S'SWU4_0025854_2_desikan_sg.graphml'
p3815
aI1713
aa(lp3816
S'SWU4_0025855_1_desikan_sg.graphml'
p3817
aI1429
aa(lp3818
S'SWU4_0025855_2_desikan_sg.graphml'
p3819
aI1465
aa(lp3820
S'SWU4_0025856_1_desikan_sg.graphml'
p3821
aI1617
aa(lp3822
S'SWU4_0025856_2_desikan_sg.graphml'
p3823
aI1612
aa(lp3824
S'SWU4_0025857_1_desikan_sg.graphml'
p3825
aI779
aa(lp3826
S'SWU4_0025857_2_desikan_sg.graphml'
p3827
aI1729
aa(lp3828
S'SWU4_0025858_1_desikan_sg.graphml'
p3829
aI1653
aa(lp3830
S'SWU4_0025858_2_desikan_sg.graphml'
p3831
aI1546
aa(lp3832
S'SWU4_0025859_1_desikan_sg.graphml'
p3833
aI1448
aa(lp3834
S'SWU4_0025859_2_desikan_sg.graphml'
p3835
aI1489
aa(lp3836
S'SWU4_0025860_1_desikan_sg.graphml'
p3837
aI1460
aa(lp3838
S'SWU4_0025860_2_desikan_sg.graphml'
p3839
aI1356
aa(lp3840
S'SWU4_0025861_1_desikan_sg.graphml'
p3841
aI1239
aa(lp3842
S'SWU4_0025861_2_desikan_sg.graphml'
p3843
aI1375
aa(lp3844
S'SWU4_0025862_1_desikan_sg.graphml'
p3845
aI652
aa(lp3846
S'SWU4_0025862_2_desikan_sg.graphml'
p3847
aI1451
aa(lp3848
S'SWU4_0025863_1_desikan_sg.graphml'
p3849
aI1393
aa(lp3850
S'SWU4_0025863_2_desikan_sg.graphml'
p3851
aI1379
aatp3852
Rp3853
aa(lp3854
S'BNU1'
p3855
ag2
((lp3856
(lp3857
S'BNU1_0025864_1_DTI_desikan.graphml'
p3858
aI1051
aa(lp3859
S'BNU1_0025864_2_DTI_desikan.graphml'
p3860
aI1037
aa(lp3861
S'BNU1_0025865_1_DTI_desikan.graphml'
p3862
aI986
aa(lp3863
S'BNU1_0025865_2_DTI_desikan.graphml'
p3864
aI943
aa(lp3865
S'BNU1_0025866_2_DTI_desikan.graphml'
p3866
aI1086
aa(lp3867
S'BNU1_0025867_1_DTI_desikan.graphml'
p3868
aI923
aa(lp3869
S'BNU1_0025867_2_DTI_desikan.graphml'
p3870
aI982
aa(lp3871
S'BNU1_0025868_1_DTI_desikan.graphml'
p3872
aI953
aa(lp3873
S'BNU1_0025868_2_DTI_desikan.graphml'
p3874
aI919
aa(lp3875
S'BNU1_0025869_1_DTI_desikan.graphml'
p3876
aI1017
aa(lp3877
S'BNU1_0025869_2_DTI_desikan.graphml'
p3878
aI1001
aa(lp3879
S'BNU1_0025870_1_DTI_desikan.graphml'
p3880
aI969
aa(lp3881
S'BNU1_0025870_2_DTI_desikan.graphml'
p3882
aI1035
aa(lp3883
S'BNU1_0025871_1_DTI_desikan.graphml'
p3884
aI931
aa(lp3885
S'BNU1_0025873_1_DTI_desikan.graphml'
p3886
aI832
aa(lp3887
S'BNU1_0025873_2_DTI_desikan.graphml'
p3888
aI814
aa(lp3889
S'BNU1_0025875_1_DTI_desikan.graphml'
p3890
aI915
aa(lp3891
S'BNU1_0025875_2_DTI_desikan.graphml'
p3892
aI931
aa(lp3893
S'BNU1_0025876_1_DTI_desikan.graphml'
p3894
aI1072
aa(lp3895
S'BNU1_0025877_1_DTI_desikan.graphml'
p3896
aI871
aa(lp3897
S'BNU1_0025877_2_DTI_desikan.graphml'
p3898
aI890
aa(lp3899
S'BNU1_0025878_2_DTI_desikan.graphml'
p3900
aI976
aa(lp3901
S'BNU1_0025879_1_DTI_desikan.graphml'
p3902
aI1236
aa(lp3903
S'BNU1_0025880_1_DTI_desikan.graphml'
p3904
aI917
aa(lp3905
S'BNU1_0025880_2_DTI_desikan.graphml'
p3906
aI893
aa(lp3907
S'BNU1_0025881_1_DTI_desikan.graphml'
p3908
aI1025
aa(lp3909
S'BNU1_0025881_2_DTI_desikan.graphml'
p3910
aI988
aa(lp3911
S'BNU1_0025882_1_DTI_desikan.graphml'
p3912
aI979
aa(lp3913
S'BNU1_0025883_1_DTI_desikan.graphml'
p3914
aI987
aa(lp3915
S'BNU1_0025883_2_DTI_desikan.graphml'
p3916
aI882
aa(lp3917
S'BNU1_0025884_1_DTI_desikan.graphml'
p3918
aI893
aa(lp3919
S'BNU1_0025884_2_DTI_desikan.graphml'
p3920
aI926
aa(lp3921
S'BNU1_0025886_1_DTI_desikan.graphml'
p3922
aI881
aa(lp3923
S'BNU1_0025887_1_DTI_desikan.graphml'
p3924
aI989
aa(lp3925
S'BNU1_0025888_1_DTI_desikan.graphml'
p3926
aI930
aa(lp3927
S'BNU1_0025888_2_DTI_desikan.graphml'
p3928
aI935
aa(lp3929
S'BNU1_0025890_1_DTI_desikan.graphml'
p3930
aI1060
aa(lp3931
S'BNU1_0025891_1_DTI_desikan.graphml'
p3932
aI1037
aa(lp3933
S'BNU1_0025891_2_DTI_desikan.graphml'
p3934
aI1003
aa(lp3935
S'BNU1_0025893_1_DTI_desikan.graphml'
p3936
aI1068
aa(lp3937
S'BNU1_0025893_2_DTI_desikan.graphml'
p3938
aI1067
aa(lp3939
S'BNU1_0025894_1_DTI_desikan.graphml'
p3940
aI917
aa(lp3941
S'BNU1_0025895_1_DTI_desikan.graphml'
p3942
aI930
aa(lp3943
S'BNU1_0025895_2_DTI_desikan.graphml'
p3944
aI992
aa(lp3945
S'BNU1_0025896_1_DTI_desikan.graphml'
p3946
aI1074
aa(lp3947
S'BNU1_0025896_2_DTI_desikan.graphml'
p3948
aI992
aa(lp3949
S'BNU1_0025897_1_DTI_desikan.graphml'
p3950
aI911
aa(lp3951
S'BNU1_0025897_2_DTI_desikan.graphml'
p3952
aI895
aa(lp3953
S'BNU1_0025898_1_DTI_desikan.graphml'
p3954
aI1084
aa(lp3955
S'BNU1_0025899_1_DTI_desikan.graphml'
p3956
aI1055
aa(lp3957
S'BNU1_0025901_1_DTI_desikan.graphml'
p3958
aI965
aa(lp3959
S'BNU1_0025901_2_DTI_desikan.graphml'
p3960
aI888
aa(lp3961
S'BNU1_0025902_2_DTI_desikan.graphml'
p3962
aI888
aa(lp3963
S'BNU1_0025903_1_DTI_desikan.graphml'
p3964
aI1048
aa(lp3965
S'BNU1_0025904_1_DTI_desikan.graphml'
p3966
aI986
aa(lp3967
S'BNU1_0025905_1_DTI_desikan.graphml'
p3968
aI962
aa(lp3969
S'BNU1_0025905_2_DTI_desikan.graphml'
p3970
aI932
aa(lp3971
S'BNU1_0025906_1_DTI_desikan.graphml'
p3972
aI889
aa(lp3973
S'BNU1_0025907_2_DTI_desikan.graphml'
p3974
aI999
aa(lp3975
S'BNU1_0025908_1_DTI_desikan.graphml'
p3976
aI895
aa(lp3977
S'BNU1_0025908_2_DTI_desikan.graphml'
p3978
aI924
aa(lp3979
S'BNU1_0025909_1_DTI_desikan.graphml'
p3980
aI1030
aa(lp3981
S'BNU1_0025909_2_DTI_desikan.graphml'
p3982
aI1136
aa(lp3983
S'BNU1_0025910_1_DTI_desikan.graphml'
p3984
aI876
aa(lp3985
S'BNU1_0025910_2_DTI_desikan.graphml'
p3986
aI906
aa(lp3987
S'BNU1_0025911_2_DTI_desikan.graphml'
p3988
aI1170
aa(lp3989
S'BNU1_0025912_1_DTI_desikan.graphml'
p3990
aI949
aa(lp3991
S'BNU1_0025912_2_DTI_desikan.graphml'
p3992
aI947
aa(lp3993
S'BNU1_0025913_1_DTI_desikan.graphml'
p3994
aI868
aa(lp3995
S'BNU1_0025913_2_DTI_desikan.graphml'
p3996
aI902
aa(lp3997
S'BNU1_0025914_1_DTI_desikan.graphml'
p3998
aI1060
aa(lp3999
S'BNU1_0025915_2_DTI_desikan.graphml'
p4000
aI1019
aa(lp4001
S'BNU1_0025916_1_DTI_desikan.graphml'
p4002
aI996
aa(lp4003
S'BNU1_0025916_2_DTI_desikan.graphml'
p4004
aI1061
aa(lp4005
S'BNU1_0025917_2_DTI_desikan.graphml'
p4006
aI915
aa(lp4007
S'BNU1_0025918_1_DTI_desikan.graphml'
p4008
aI968
aa(lp4009
S'BNU1_0025918_2_DTI_desikan.graphml'
p4010
aI935
aa(lp4011
S'BNU1_0025919_1_DTI_desikan.graphml'
p4012
aI1138
aa(lp4013
S'BNU1_0025919_2_DTI_desikan.graphml'
p4014
aI1089
aa(lp4015
S'BNU1_0025920_1_DTI_desikan.graphml'
p4016
aI988
aa(lp4017
S'BNU1_0025920_2_DTI_desikan.graphml'
p4018
aI1002
aatp4019
Rp4020
aa(lp4021
S'BNU3'
p4022
ag2
((lp4023
(lp4024
S'BNU3_0027055_1_DTI_desikan.graphml'
p4025
aI1082
aa(lp4026
S'BNU3_0027056_1_DTI_desikan.graphml'
p4027
aI815
aa(lp4028
S'BNU3_0027057_1_DTI_desikan.graphml'
p4029
aI945
aa(lp4030
S'BNU3_0027058_1_DTI_desikan.graphml'
p4031
aI884
aa(lp4032
S'BNU3_0027059_1_DTI_desikan.graphml'
p4033
aI925
aa(lp4034
S'BNU3_0027060_1_DTI_desikan.graphml'
p4035
aI935
aa(lp4036
S'BNU3_0027061_1_DTI_desikan.graphml'
p4037
aI1110
aa(lp4038
S'BNU3_0027062_1_DTI_desikan.graphml'
p4039
aI863
aa(lp4040
S'BNU3_0027063_1_DTI_desikan.graphml'
p4041
aI679
aa(lp4042
S'BNU3_0027064_1_DTI_desikan.graphml'
p4043
aI923
aa(lp4044
S'BNU3_0027065_1_DTI_desikan.graphml'
p4045
aI1057
aa(lp4046
S'BNU3_0027066_1_DTI_desikan.graphml'
p4047
aI1173
aa(lp4048
S'BNU3_0027067_1_DTI_desikan.graphml'
p4049
aI1036
aa(lp4050
S'BNU3_0027068_1_DTI_desikan.graphml'
p4051
aI1029
aa(lp4052
S'BNU3_0027069_1_DTI_desikan.graphml'
p4053
aI888
aa(lp4054
S'BNU3_0027070_1_DTI_desikan.graphml'
p4055
aI853
aa(lp4056
S'BNU3_0027071_1_DTI_desikan.graphml'
p4057
aI897
aa(lp4058
S'BNU3_0027072_1_DTI_desikan.graphml'
p4059
aI871
aa(lp4060
S'BNU3_0027073_1_DTI_desikan.graphml'
p4061
aI848
aa(lp4062
S'BNU3_0027074_1_DTI_desikan.graphml'
p4063
aI890
aa(lp4064
S'BNU3_0027075_1_DTI_desikan.graphml'
p4065
aI1001
aa(lp4066
S'BNU3_0027078_1_DTI_desikan.graphml'
p4067
aI914
aa(lp4068
S'BNU3_0027079_1_DTI_desikan.graphml'
p4069
aI911
aa(lp4070
S'BNU3_0027080_1_DTI_desikan.graphml'
p4071
aI1002
aa(lp4072
S'BNU3_0027081_1_DTI_desikan.graphml'
p4073
aI1008
aa(lp4074
S'BNU3_0027082_1_DTI_desikan.graphml'
p4075
aI946
aa(lp4076
S'BNU3_0027083_1_DTI_desikan.graphml'
p4077
aI898
aa(lp4078
S'BNU3_0027084_1_DTI_desikan.graphml'
p4079
aI1048
aa(lp4080
S'BNU3_0027085_1_DTI_desikan.graphml'
p4081
aI918
aa(lp4082
S'BNU3_0027086_1_DTI_desikan.graphml'
p4083
aI965
aa(lp4084
S'BNU3_0027087_1_DTI_desikan.graphml'
p4085
aI804
aa(lp4086
S'BNU3_0027088_1_DTI_desikan.graphml'
p4087
aI1068
aa(lp4088
S'BNU3_0027089_1_DTI_desikan.graphml'
p4089
aI952
aa(lp4090
S'BNU3_0027090_1_DTI_desikan.graphml'
p4091
aI928
aa(lp4092
S'BNU3_0027091_1_DTI_desikan.graphml'
p4093
aI897
aa(lp4094
S'BNU3_0027092_1_DTI_desikan.graphml'
p4095
aI949
aa(lp4096
S'BNU3_0027093_1_DTI_desikan.graphml'
p4097
aI1002
aa(lp4098
S'BNU3_0027094_1_DTI_desikan.graphml'
p4099
aI896
aa(lp4100
S'BNU3_0027095_1_DTI_desikan.graphml'
p4101
aI1081
aa(lp4102
S'BNU3_0027096_1_DTI_desikan.graphml'
p4103
aI1001
aa(lp4104
S'BNU3_0027097_1_DTI_desikan.graphml'
p4105
aI871
aa(lp4106
S'BNU3_0027098_1_DTI_desikan.graphml'
p4107
aI1138
aa(lp4108
S'BNU3_0027099_1_DTI_desikan.graphml'
p4109
aI801
aa(lp4110
S'BNU3_0027100_1_DTI_desikan.graphml'
p4111
aI1021
aa(lp4112
S'BNU3_0027101_1_DTI_desikan.graphml'
p4113
aI1084
aa(lp4114
S'BNU3_0027102_1_DTI_desikan.graphml'
p4115
aI854
aatp4116
Rp4117
aa(lp4118
S'NKI1'
p4119
ag2
((lp4120
(lp4121
S'NKI24_0021001_1_DTI_desikan.graphml'
p4122
aI1019
aa(lp4123
S'NKI24_0021001_2_DTI_desikan.graphml'
p4124
aI694
aa(lp4125
S'NKI24_0021002_1_DTI_desikan.graphml'
p4126
aI832
aa(lp4127
S'NKI24_0021002_2_DTI_desikan.graphml'
p4128
aI844
aa(lp4129
S'NKI24_0021006_1_DTI_desikan.graphml'
p4130
aI892
aa(lp4131
S'NKI24_0021006_2_DTI_desikan.graphml'
p4132
aI906
aa(lp4133
S'NKI24_0021018_1_DTI_desikan.graphml'
p4134
aI951
aa(lp4135
S'NKI24_0021018_2_DTI_desikan.graphml'
p4136
aI868
aa(lp4137
S'NKI24_0021024_1_DTI_desikan.graphml'
p4138
aI772
aa(lp4139
S'NKI24_0021024_2_DTI_desikan.graphml'
p4140
aI757
aa(lp4141
S'NKI24_1793622_1_DTI_desikan.graphml'
p4142
aI836
aa(lp4143
S'NKI24_1793622_2_DTI_desikan.graphml'
p4144
aI812
aa(lp4145
S'NKI24_1961098_1_DTI_desikan.graphml'
p4146
aI885
aa(lp4147
S'NKI24_1961098_2_DTI_desikan.graphml'
p4148
aI912
aa(lp4149
S'NKI24_2475376_1_DTI_desikan.graphml'
p4150
aI901
aa(lp4151
S'NKI24_2475376_2_DTI_desikan.graphml'
p4152
aI917
aa(lp4153
S'NKI24_2799329_1_DTI_desikan.graphml'
p4154
aI882
aa(lp4155
S'NKI24_2799329_2_DTI_desikan.graphml'
p4156
aI1106
aa(lp4157
S'NKI24_2842950_1_DTI_desikan.graphml'
p4158
aI1004
aa(lp4159
S'NKI24_2842950_2_DTI_desikan.graphml'
p4160
aI995
aa(lp4161
S'NKI24_3201815_1_DTI_desikan.graphml'
p4162
aI866
aa(lp4163
S'NKI24_3201815_2_DTI_desikan.graphml'
p4164
aI912
aa(lp4165
S'NKI24_3315657_1_DTI_desikan.graphml'
p4166
aI828
aa(lp4167
S'NKI24_3315657_2_DTI_desikan.graphml'
p4168
aI775
aa(lp4169
S'NKI24_3795193_1_DTI_desikan.graphml'
p4170
aI802
aa(lp4171
S'NKI24_3795193_2_DTI_desikan.graphml'
p4172
aI882
aa(lp4173
S'NKI24_3808535_1_DTI_desikan.graphml'
p4174
aI875
aa(lp4175
S'NKI24_3808535_2_DTI_desikan.graphml'
p4176
aI919
aa(lp4177
S'NKI24_4176156_1_DTI_desikan.graphml'
p4178
aI754
aa(lp4179
S'NKI24_4176156_2_DTI_desikan.graphml'
p4180
aI847
aa(lp4181
S'NKI24_4288245_1_DTI_desikan.graphml'
p4182
aI878
aa(lp4183
S'NKI24_4288245_2_DTI_desikan.graphml'
p4184
aI890
aa(lp4185
S'NKI24_7055197_1_DTI_desikan.graphml'
p4186
aI929
aa(lp4187
S'NKI24_7055197_2_DTI_desikan.graphml'
p4188
aI833
aa(lp4189
S'NKI24_8735778_1_DTI_desikan.graphml'
p4190
aI913
aa(lp4191
S'NKI24_8735778_2_DTI_desikan.graphml'
p4192
aI886
aa(lp4193
S'NKI24_9630905_1_DTI_desikan.graphml'
p4194
aI854
aa(lp4195
S'NKI24_9630905_2_DTI_desikan.graphml'
p4196
aI900
aatp4197
Rp4198
aa(lp4199
S'NKIENH'
p4200
ag2
((lp4201
(lp4202
S'NKIENH_0101084_1_DTI_desikan.graphml'
p4203
aI790
aa(lp4204
S'NKIENH_0102157_1_DTI_desikan.graphml'
p4205
aI790
aa(lp4206
S'NKIENH_0103645_1_DTI_desikan.graphml'
p4207
aI799
aa(lp4208
S'NKIENH_0103714_1_DTI_desikan.graphml'
p4209
aI790
aa(lp4210
S'NKIENH_0103872_1_DTI_desikan.graphml'
p4211
aI773
aa(lp4212
S'NKIENH_0105290_1_DTI_desikan.graphml'
p4213
aI960
aa(lp4214
S'NKIENH_0105488_1_DTI_desikan.graphml'
p4215
aI944
aa(lp4216
S'NKIENH_0105521_1_DTI_desikan.graphml'
p4217
aI965
aa(lp4218
S'NKIENH_0106057_1_DTI_desikan.graphml'
p4219
aI923
aa(lp4220
S'NKIENH_0106664_1_DTI_desikan.graphml'
p4221
aI790
aa(lp4222
S'NKIENH_0106780_1_DTI_desikan.graphml'
p4223
aI926
aa(lp4224
S'NKIENH_0108355_1_DTI_desikan.graphml'
p4225
aI823
aa(lp4226
S'NKIENH_0109459_1_DTI_desikan.graphml'
p4227
aI819
aa(lp4228
S'NKIENH_0109727_1_DTI_desikan.graphml'
p4229
aI840
aa(lp4230
S'NKIENH_0109819_1_DTI_desikan.graphml'
p4231
aI787
aa(lp4232
S'NKIENH_0110809_1_DTI_desikan.graphml'
p4233
aI790
aa(lp4234
S'NKIENH_0111282_1_DTI_desikan.graphml'
p4235
aI992
aa(lp4236
S'NKIENH_0112249_1_DTI_desikan.graphml'
p4237
aI770
aa(lp4238
S'NKIENH_0112347_1_DTI_desikan.graphml'
p4239
aI629
aa(lp4240
S'NKIENH_0112828_1_DTI_desikan.graphml'
p4241
aI880
aa(lp4242
S'NKIENH_0113013_1_DTI_desikan.graphml'
p4243
aI865
aa(lp4244
S'NKIENH_0113030_1_DTI_desikan.graphml'
p4245
aI934
aa(lp4246
S'NKIENH_0113044_1_DTI_desikan.graphml'
p4247
aI682
aa(lp4248
S'NKIENH_0114232_1_DTI_desikan.graphml'
p4249
aI927
aa(lp4250
S'NKIENH_0115321_1_DTI_desikan.graphml'
p4251
aI786
aa(lp4252
S'NKIENH_0115454_1_DTI_desikan.graphml'
p4253
aI875
aa(lp4254
S'NKIENH_0115564_1_DTI_desikan.graphml'
p4255
aI896
aa(lp4256
S'NKIENH_0115824_1_DTI_desikan.graphml'
p4257
aI867
aa(lp4258
S'NKIENH_0116039_1_DTI_desikan.graphml'
p4259
aI755
aa(lp4260
S'NKIENH_0116065_1_DTI_desikan.graphml'
p4261
aI905
aa(lp4262
S'NKIENH_0116415_1_DTI_desikan.graphml'
p4263
aI725
aa(lp4264
S'NKIENH_0116834_1_DTI_desikan.graphml'
p4265
aI797
aa(lp4266
S'NKIENH_0116842_1_DTI_desikan.graphml'
p4267
aI775
aa(lp4268
S'NKIENH_0117168_1_DTI_desikan.graphml'
p4269
aI1130
aa(lp4270
S'NKIENH_0118051_1_DTI_desikan.graphml'
p4271
aI1022
aa(lp4272
S'NKIENH_0118439_1_DTI_desikan.graphml'
p4273
aI790
aa(lp4274
S'NKIENH_0119866_1_DTI_desikan.graphml'
p4275
aI1004
aa(lp4276
S'NKIENH_0120538_1_DTI_desikan.graphml'
p4277
aI794
aa(lp4278
S'NKIENH_0120557_1_DTI_desikan.graphml'
p4279
aI1123
aa(lp4280
S'NKIENH_0120652_1_DTI_desikan.graphml'
p4281
aI890
aa(lp4282
S'NKIENH_0121498_1_DTI_desikan.graphml'
p4283
aI790
aa(lp4284
S'NKIENH_0122169_1_DTI_desikan.graphml'
p4285
aI815
aa(lp4286
S'NKIENH_0122512_1_DTI_desikan.graphml'
p4287
aI778
aa(lp4288
S'NKIENH_0122816_1_DTI_desikan.graphml'
p4289
aI842
aa(lp4290
S'NKIENH_0122844_1_DTI_desikan.graphml'
p4291
aI903
aa(lp4292
S'NKIENH_0123173_1_DTI_desikan.graphml'
p4293
aI817
aa(lp4294
S'NKIENH_0123429_1_DTI_desikan.graphml'
p4295
aI910
aa(lp4296
S'NKIENH_0123657_1_DTI_desikan.graphml'
p4297
aI858
aa(lp4298
S'NKIENH_0125762_1_DTI_desikan.graphml'
p4299
aI919
aa(lp4300
S'NKIENH_0126919_1_DTI_desikan.graphml'
p4301
aI752
aa(lp4302
S'NKIENH_0127733_1_DTI_desikan.graphml'
p4303
aI915
aa(lp4304
S'NKIENH_0127800_1_DTI_desikan.graphml'
p4305
aI765
aa(lp4306
S'NKIENH_0130249_1_DTI_desikan.graphml'
p4307
aI774
aa(lp4308
S'NKIENH_0131127_1_DTI_desikan.graphml'
p4309
aI908
aa(lp4310
S'NKIENH_0131832_1_DTI_desikan.graphml'
p4311
aI700
aa(lp4312
S'NKIENH_0132088_1_DTI_desikan.graphml'
p4313
aI764
aa(lp4314
S'NKIENH_0132717_1_DTI_desikan.graphml'
p4315
aI1045
aa(lp4316
S'NKIENH_0132850_1_DTI_desikan.graphml'
p4317
aI867
aa(lp4318
S'NKIENH_0132995_1_DTI_desikan.graphml'
p4319
aI868
aa(lp4320
S'NKIENH_0133436_1_DTI_desikan.graphml'
p4321
aI942
aa(lp4322
S'NKIENH_0133894_1_DTI_desikan.graphml'
p4323
aI889
aa(lp4324
S'NKIENH_0134795_1_DTI_desikan.graphml'
p4325
aI663
aa(lp4326
S'NKIENH_0135671_1_DTI_desikan.graphml'
p4327
aI944
aa(lp4328
S'NKIENH_0136018_1_DTI_desikan.graphml'
p4329
aI782
aa(lp4330
S'NKIENH_0136303_1_DTI_desikan.graphml'
p4331
aI875
aa(lp4332
S'NKIENH_0136416_1_DTI_desikan.graphml'
p4333
aI857
aa(lp4334
S'NKIENH_0137073_1_DTI_desikan.graphml'
p4335
aI1029
aa(lp4336
S'NKIENH_0137496_1_DTI_desikan.graphml'
p4337
aI928
aa(lp4338
S'NKIENH_0137679_1_DTI_desikan.graphml'
p4339
aI1047
aa(lp4340
S'NKIENH_0137714_1_DTI_desikan.graphml'
p4341
aI840
aa(lp4342
S'NKIENH_0138558_1_DTI_desikan.graphml'
p4343
aI685
aa(lp4344
S'NKIENH_0139212_1_DTI_desikan.graphml'
p4345
aI842
aa(lp4346
S'NKIENH_0139300_1_DTI_desikan.graphml'
p4347
aI905
aa(lp4348
S'NKIENH_0139480_1_DTI_desikan.graphml'
p4349
aI1059
aa(lp4350
S'NKIENH_0141473_1_DTI_desikan.graphml'
p4351
aI780
aa(lp4352
S'NKIENH_0141795_1_DTI_desikan.graphml'
p4353
aI817
aa(lp4354
S'NKIENH_0142673_1_DTI_desikan.graphml'
p4355
aI896
aa(lp4356
S'NKIENH_0144314_1_DTI_desikan.graphml'
p4357
aI850
aa(lp4358
S'NKIENH_0144344_1_DTI_desikan.graphml'
p4359
aI790
aa(lp4360
S'NKIENH_0144495_1_DTI_desikan.graphml'
p4361
aI898
aa(lp4362
S'NKIENH_0144667_1_DTI_desikan.graphml'
p4363
aI886
aa(lp4364
S'NKIENH_0144702_1_DTI_desikan.graphml'
p4365
aI610
aa(lp4366
S'NKIENH_0146714_1_DTI_desikan.graphml'
p4367
aI932
aa(lp4368
S'NKIENH_0146865_1_DTI_desikan.graphml'
p4369
aI1088
aa(lp4370
S'NKIENH_0147122_1_DTI_desikan.graphml'
p4371
aI826
aa(lp4372
S'NKIENH_0148071_1_DTI_desikan.graphml'
p4373
aI686
aa(lp4374
S'NKIENH_0149794_1_DTI_desikan.graphml'
p4375
aI1003
aa(lp4376
S'NKIENH_0150404_1_DTI_desikan.graphml'
p4377
aI744
aa(lp4378
S'NKIENH_0150525_1_DTI_desikan.graphml'
p4379
aI758
aa(lp4380
S'NKIENH_0150589_1_DTI_desikan.graphml'
p4381
aI808
aa(lp4382
S'NKIENH_0150716_1_DTI_desikan.graphml'
p4383
aI842
aa(lp4384
S'NKIENH_0151580_1_DTI_desikan.graphml'
p4385
aI846
aa(lp4386
S'NKIENH_0152189_1_DTI_desikan.graphml'
p4387
aI1023
aa(lp4388
S'NKIENH_0152384_1_DTI_desikan.graphml'
p4389
aI757
aa(lp4390
S'NKIENH_0152968_1_DTI_desikan.graphml'
p4391
aI827
aa(lp4392
S'NKIENH_0153114_1_DTI_desikan.graphml'
p4393
aI915
aa(lp4394
S'NKIENH_0153131_1_DTI_desikan.graphml'
p4395
aI877
aa(lp4396
S'NKIENH_0153790_1_DTI_desikan.graphml'
p4397
aI806
aa(lp4398
S'NKIENH_0154419_1_DTI_desikan.graphml'
p4399
aI968
aa(lp4400
S'NKIENH_0154423_1_DTI_desikan.graphml'
p4401
aI886
aa(lp4402
S'NKIENH_0155419_1_DTI_desikan.graphml'
p4403
aI833
aa(lp4404
S'NKIENH_0155458_1_DTI_desikan.graphml'
p4405
aI813
aa(lp4406
S'NKIENH_0156263_1_DTI_desikan.graphml'
p4407
aI858
aa(lp4408
S'NKIENH_0156678_1_DTI_desikan.graphml'
p4409
aI852
aa(lp4410
S'NKIENH_0157873_1_DTI_desikan.graphml'
p4411
aI963
aa(lp4412
S'NKIENH_0157947_1_DTI_desikan.graphml'
p4413
aI985
aa(lp4414
S'NKIENH_0158411_1_DTI_desikan.graphml'
p4415
aI874
aa(lp4416
S'NKIENH_0158560_1_DTI_desikan.graphml'
p4417
aI883
aa(lp4418
S'NKIENH_0158744_1_DTI_desikan.graphml'
p4419
aI761
aa(lp4420
S'NKIENH_0159429_1_DTI_desikan.graphml'
p4421
aI840
aa(lp4422
S'NKIENH_0160099_1_DTI_desikan.graphml'
p4423
aI904
aa(lp4424
S'NKIENH_0161200_1_DTI_desikan.graphml'
p4425
aI893
aa(lp4426
S'NKIENH_0161513_1_DTI_desikan.graphml'
p4427
aI807
aa(lp4428
S'NKIENH_0161530_1_DTI_desikan.graphml'
p4429
aI845
aa(lp4430
S'NKIENH_0162251_1_DTI_desikan.graphml'
p4431
aI714
aa(lp4432
S'NKIENH_0162704_1_DTI_desikan.graphml'
p4433
aI858
aa(lp4434
S'NKIENH_0162902_1_DTI_desikan.graphml'
p4435
aI743
aa(lp4436
S'NKIENH_0163059_1_DTI_desikan.graphml'
p4437
aI627
aa(lp4438
S'NKIENH_0163228_1_DTI_desikan.graphml'
p4439
aI871
aa(lp4440
S'NKIENH_0163508_1_DTI_desikan.graphml'
p4441
aI767
aa(lp4442
S'NKIENH_0164093_1_DTI_desikan.graphml'
p4443
aI699
aa(lp4444
S'NKIENH_0164326_1_DTI_desikan.graphml'
p4445
aI790
aa(lp4446
S'NKIENH_0164385_1_DTI_desikan.graphml'
p4447
aI871
aa(lp4448
S'NKIENH_0164900_1_DTI_desikan.graphml'
p4449
aI801
aa(lp4450
S'NKIENH_0165532_1_DTI_desikan.graphml'
p4451
aI1074
aa(lp4452
S'NKIENH_0165660_1_DTI_desikan.graphml'
p4453
aI727
aa(lp4454
S'NKIENH_0166009_1_DTI_desikan.graphml'
p4455
aI823
aa(lp4456
S'NKIENH_0166094_1_DTI_desikan.graphml'
p4457
aI733
aa(lp4458
S'NKIENH_0166987_1_DTI_desikan.graphml'
p4459
aI879
aa(lp4460
S'NKIENH_0167827_1_DTI_desikan.graphml'
p4461
aI975
aa(lp4462
S'NKIENH_0168013_1_DTI_desikan.graphml'
p4463
aI740
aa(lp4464
S'NKIENH_0168239_1_DTI_desikan.graphml'
p4465
aI789
aa(lp4466
S'NKIENH_0168357_1_DTI_desikan.graphml'
p4467
aI834
aa(lp4468
S'NKIENH_0168413_1_DTI_desikan.graphml'
p4469
aI963
aa(lp4470
S'NKIENH_0168489_1_DTI_desikan.graphml'
p4471
aI827
aa(lp4472
S'NKIENH_0169007_1_DTI_desikan.graphml'
p4473
aI866
aa(lp4474
S'NKIENH_0170363_1_DTI_desikan.graphml'
p4475
aI728
aa(lp4476
S'NKIENH_0171266_1_DTI_desikan.graphml'
p4477
aI896
aa(lp4478
S'NKIENH_0171391_1_DTI_desikan.graphml'
p4479
aI877
aa(lp4480
S'NKIENH_0173085_1_DTI_desikan.graphml'
p4481
aI939
aa(lp4482
S'NKIENH_0173286_1_DTI_desikan.graphml'
p4483
aI949
aa(lp4484
S'NKIENH_0173358_1_DTI_desikan.graphml'
p4485
aI931
aa(lp4486
S'NKIENH_0173496_1_DTI_desikan.graphml'
p4487
aI1036
aa(lp4488
S'NKIENH_0174363_1_DTI_desikan.graphml'
p4489
aI919
aa(lp4490
S'NKIENH_0174886_1_DTI_desikan.graphml'
p4491
aI827
aa(lp4492
S'NKIENH_0177330_1_DTI_desikan.graphml'
p4493
aI872
aa(lp4494
S'NKIENH_0177681_1_DTI_desikan.graphml'
p4495
aI812
aa(lp4496
S'NKIENH_0177857_1_DTI_desikan.graphml'
p4497
aI761
aa(lp4498
S'NKIENH_0178174_1_DTI_desikan.graphml'
p4499
aI1144
aa(lp4500
S'NKIENH_0178453_1_DTI_desikan.graphml'
p4501
aI768
aa(lp4502
S'NKIENH_0179005_1_DTI_desikan.graphml'
p4503
aI1153
aa(lp4504
S'NKIENH_0179283_1_DTI_desikan.graphml'
p4505
aI1090
aa(lp4506
S'NKIENH_0179309_1_DTI_desikan.graphml'
p4507
aI801
aa(lp4508
S'NKIENH_0179454_1_DTI_desikan.graphml'
p4509
aI894
aa(lp4510
S'NKIENH_0179873_1_DTI_desikan.graphml'
p4511
aI838
aa(lp4512
S'NKIENH_0180093_1_DTI_desikan.graphml'
p4513
aI814
aa(lp4514
S'NKIENH_0180308_1_DTI_desikan.graphml'
p4515
aI954
aa(lp4516
S'NKIENH_0181439_1_DTI_desikan.graphml'
p4517
aI818
aa(lp4518
S'NKIENH_0181535_1_DTI_desikan.graphml'
p4519
aI759
aa(lp4520
S'NKIENH_0181960_1_DTI_desikan.graphml'
p4521
aI723
aa(lp4522
S'NKIENH_0182376_1_DTI_desikan.graphml'
p4523
aI737
aa(lp4524
S'NKIENH_0182604_1_DTI_desikan.graphml'
p4525
aI790
aa(lp4526
S'NKIENH_0183457_1_DTI_desikan.graphml'
p4527
aI782
aa(lp4528
S'NKIENH_0183726_1_DTI_desikan.graphml'
p4529
aI916
aa(lp4530
S'NKIENH_0185428_1_DTI_desikan.graphml'
p4531
aI815
aa(lp4532
S'NKIENH_0185676_1_DTI_desikan.graphml'
p4533
aI785
aa(lp4534
S'NKIENH_0185781_1_DTI_desikan.graphml'
p4535
aI902
aa(lp4536
S'NKIENH_0186067_1_DTI_desikan.graphml'
p4537
aI1072
aa(lp4538
S'NKIENH_0186277_1_DTI_desikan.graphml'
p4539
aI1227
aa(lp4540
S'NKIENH_0186697_1_DTI_desikan.graphml'
p4541
aI963
aa(lp4542
S'NKIENH_0187635_1_DTI_desikan.graphml'
p4543
aI804
aa(lp4544
S'NKIENH_0187884_1_DTI_desikan.graphml'
p4545
aI790
aa(lp4546
S'NKIENH_0188199_1_DTI_desikan.graphml'
p4547
aI826
aa(lp4548
S'NKIENH_0188219_1_DTI_desikan.graphml'
p4549
aI903
aa(lp4550
S'NKIENH_0188854_1_DTI_desikan.graphml'
p4551
aI780
aa(lp4552
S'NKIENH_0188939_1_DTI_desikan.graphml'
p4553
aI805
aa(lp4554
S'NKIENH_0189478_1_DTI_desikan.graphml'
p4555
aI905
aa(lp4556
S'NKIENH_0190053_1_DTI_desikan.graphml'
p4557
aI875
aa(lp4558
S'NKIENH_0190501_1_DTI_desikan.graphml'
p4559
aI834
aa(lp4560
S'NKIENH_0192197_1_DTI_desikan.graphml'
p4561
aI935
aa(lp4562
S'NKIENH_0192736_1_DTI_desikan.graphml'
p4563
aI940
aa(lp4564
S'NKIENH_0193358_1_DTI_desikan.graphml'
p4565
aI824
aa(lp4566
S'NKIENH_0194023_1_DTI_desikan.graphml'
p4567
aI887
aa(lp4568
S'NKIENH_0194956_1_DTI_desikan.graphml'
p4569
aI910
aa(lp4570
S'NKIENH_0195031_1_DTI_desikan.graphml'
p4571
aI1043
aa(lp4572
S'NKIENH_0195236_1_DTI_desikan.graphml'
p4573
aI1020
aa(lp4574
S'NKIENH_0196558_1_DTI_desikan.graphml'
p4575
aI858
aa(lp4576
S'NKIENH_0196651_1_DTI_desikan.graphml'
p4577
aI815
aa(lp4578
S'NKIENH_0197456_1_DTI_desikan.graphml'
p4579
aI834
aa(lp4580
S'NKIENH_0197570_1_DTI_desikan.graphml'
p4581
aI760
aa(lp4582
S'NKIENH_0197836_1_DTI_desikan.graphml'
p4583
aI836
aa(lp4584
S'NKIENH_0198051_1_DTI_desikan.graphml'
p4585
aI905
aa(lp4586
S'NKIENH_0198130_1_DTI_desikan.graphml'
p4587
aI891
aa(lp4588
S'NKIENH_0198357_1_DTI_desikan.graphml'
p4589
aI852
aa(lp4590
S'NKIENH_0198985_1_DTI_desikan.graphml'
p4591
aI1026
aa(lp4592
S'NKIENH_0199155_1_DTI_desikan.graphml'
p4593
aI841
aa(lp4594
S'NKIENH_0199340_1_DTI_desikan.graphml'
p4595
aI953
aa(lp4596
S'NKIENH_0199620_1_DTI_desikan.graphml'
p4597
aI826
aatp4598
Rp4599
aatp4600
Rp4601
s.